
SpotWelder.elf:     file format elf32-avr

Sections:
Idx Name          Size      VMA       LMA       File off  Algn
  0 .data         0000000c  00800100  00002e8a  00002f3e  2**0
                  CONTENTS, ALLOC, LOAD, DATA
  1 .text         00002e8a  00000000  00000000  000000b4  2**1
                  CONTENTS, ALLOC, LOAD, READONLY, CODE
  2 .bss          0000025f  0080010c  0080010c  00002f4a  2**0
                  ALLOC
  3 .eeprom       00000014  00810000  00810000  00002f4a  2**0
                  CONTENTS, ALLOC, LOAD, DATA
  4 .comment      00000030  00000000  00000000  00002f5e  2**0
                  CONTENTS, READONLY

Disassembly of section .text:

00000000 <__vectors>:
       0:	0c 94 2a 02 	jmp	0x454	; 0x454 <__ctors_end>
       4:	0c 94 3f 13 	jmp	0x267e	; 0x267e <__vector_1>
       8:	0c 94 78 13 	jmp	0x26f0	; 0x26f0 <__vector_2>
       c:	0c 94 0e 13 	jmp	0x261c	; 0x261c <__vector_3>
      10:	0c 94 9f 0e 	jmp	0x1d3e	; 0x1d3e <__vector_4>
      14:	0c 94 79 0e 	jmp	0x1cf2	; 0x1cf2 <__vector_5>
      18:	0c 94 47 02 	jmp	0x48e	; 0x48e <__bad_interrupt>
      1c:	0c 94 47 02 	jmp	0x48e	; 0x48e <__bad_interrupt>
      20:	0c 94 47 02 	jmp	0x48e	; 0x48e <__bad_interrupt>
      24:	0c 94 47 02 	jmp	0x48e	; 0x48e <__bad_interrupt>
      28:	0c 94 47 02 	jmp	0x48e	; 0x48e <__bad_interrupt>
      2c:	0c 94 47 02 	jmp	0x48e	; 0x48e <__bad_interrupt>
      30:	0c 94 47 02 	jmp	0x48e	; 0x48e <__bad_interrupt>
      34:	0c 94 13 04 	jmp	0x826	; 0x826 <__vector_13>
      38:	0c 94 47 02 	jmp	0x48e	; 0x48e <__bad_interrupt>
      3c:	0c 94 47 02 	jmp	0x48e	; 0x48e <__bad_interrupt>
      40:	0c 94 49 02 	jmp	0x492	; 0x492 <__vector_16>
      44:	0c 94 47 02 	jmp	0x48e	; 0x48e <__bad_interrupt>
      48:	0c 94 47 02 	jmp	0x48e	; 0x48e <__bad_interrupt>
      4c:	0c 94 47 02 	jmp	0x48e	; 0x48e <__bad_interrupt>
      50:	0c 94 47 02 	jmp	0x48e	; 0x48e <__bad_interrupt>
      54:	0c 94 47 02 	jmp	0x48e	; 0x48e <__bad_interrupt>
      58:	0c 94 47 02 	jmp	0x48e	; 0x48e <__bad_interrupt>
      5c:	0c 94 47 02 	jmp	0x48e	; 0x48e <__bad_interrupt>
      60:	0c 94 47 02 	jmp	0x48e	; 0x48e <__bad_interrupt>
      64:	0c 94 47 02 	jmp	0x48e	; 0x48e <__bad_interrupt>
      68:	0c 94 47 02 	jmp	0x48e	; 0x48e <__bad_interrupt>
      6c:	0c 94 47 02 	jmp	0x48e	; 0x48e <__bad_interrupt>

00000070 <FWVerMsgStr>:
      70:	20 20 66 77 20 31 2e 30 20 63 32 30 31 34 20 20       fw 1.0 c2014  
	...

00000081 <FWNameStr>:
      81:	2d 4d 69 63 72 6f 20 57 65 6c 64 20 50 72 6f 2d     -Micro Weld Pro-
	...

00000092 <__c.2612>:
      92:	20 44 65 66 61 75 6c 74 73 20 20 53 65 74 21 20      Defaults  Set! 
	...

000000a3 <__c.2607>:
      a3:	6d 56 00                                            mV.

000000a6 <__c.2599>:
      a6:	20 53 67 6c 20 50 75 6c 73 65 20 57 65 6c 64 20      Sgl Pulse Weld 
	...

000000b7 <__c.2597>:
      b7:	20 44 62 6c 20 50 75 6c 73 65 20 57 65 6c 64 20      Dbl Pulse Weld 
	...

000000c8 <__c.2595>:
      c8:	20 20 4d 61 6e 75 61 6c 20 57 65 6c 64 20 20 20       Manual Weld   
	...

000000d9 <__c.2588>:
      d9:	53 65 74 74 69 6e 67 20 53 61 76 65 64 2e 2e 2e     Setting Saved...
	...

000000ea <__c.2586>:
      ea:	46 6f 6f 74 20 20 53 77 00                          Foot  Sw.

000000f3 <__c.2584>:
      f3:	53 65 74 74 69 6e 67 20 54 72 69 67 20 54 6f 20     Setting Trig To 
	...

00000104 <__c.2582>:
     104:	53 61 76 65 20 20 20 20 20 20 20 20 20 20 20 20     Save            
	...

00000115 <__c.2580>:
     115:	20 53 67 6c 20 50 75 6c 73 65 20 57 65 6c 64 20      Sgl Pulse Weld 
	...

00000126 <__c.2578>:
     126:	20 44 62 6c 20 50 75 6c 73 65 20 57 65 6c 64 20      Dbl Pulse Weld 
	...

00000137 <__c.2576>:
     137:	20 20 4d 61 6e 75 61 6c 20 57 65 6c 64 20 20 20       Manual Weld   
	...

00000148 <__c.2569>:
     148:	46 6f 6f 74 2d 73 77 69 74 63 68 20 54 72 69 67     Foot-switch Trig
	...

00000159 <__c.2567>:
     159:	43 6f 6e 74 61 63 74 20 44 65 74 20 54 72 69 67     Contact Det Trig
	...

0000016a <__c.2560>:
     16a:	53 65 74 74 69 6e 67 20 53 61 76 65 64 2e 2e 2e     Setting Saved...
	...

0000017b <__c.2558>:
     17b:	43 6f 6e 74 69 6e 75 6f 75 73 20 4d 6f 64 65 21     Continuous Mode!
	...

0000018c <__c.2556>:
     18c:	49 6e 76 61 6c 69 64 20 20 66 6f 72 00              Invalid  for.

00000199 <__c.2554>:
     199:	53 61 76 65 20 20 20 20 20 20 20 20 20 20 20 20     Save            
	...

000001aa <__c.2552>:
     1aa:	46 6f 6f 74 2d 73 77 69 74 63 68 20 54 72 69 67     Foot-switch Trig
	...

000001bb <__c.2550>:
     1bb:	43 6f 6e 74 61 63 74 20 44 65 74 20 54 72 69 67     Contact Det Trig
	...

000001cc <__c.2542>:
     1cc:	6d 73 00                                            ms.

000001cf <__c.2534>:
     1cf:	6d 73 00                                            ms.

000001d2 <__c.2526>:
     1d2:	6d 73 00                                            ms.

000001d5 <__c.2518>:
     1d5:	6d 73 00                                            ms.

000001d8 <__c.2500>:
     1d8:	53 61 76 69 6e 67 20 56 61 6c 75 65 20 2e 2e 2e     Saving Value ...
	...

000001e9 <__c.2496>:
     1e9:	20 20 4e 6f 20 43 68 61 6e 67 65 2e 2e 2e 20 20       No Change...  
	...

000001fa <__c.2490>:
     1fa:	53 65 74 74 69 6e 67 20 44 65 66 61 75 6c 74 21     Setting Default!
	...

0000020b <__c.2484>:
     20b:	20 20 20 20 20 20 20 20 20 20 20 45 78 69 74 20                Exit 
	...

0000021c <__c.2482>:
     21c:	20 53 61 76 65 20 20 20 20 20 20 45 78 69 74 20      Save      Exit 
	...

0000022d <__c.2463>:
     22d:	50 55 53 48 20 20 20 20 20 20 42 4f 54 48 00        PUSH      BOTH.

0000023c <__c.2461>:
     23c:	52 65 73 65 74 20 44 65 66 61 75 6c 74 73 20 2d     Reset Defaults -
	...

0000024d <__c.2459>:
     24d:	47 4f 2e 2e 2e 20 20 20 20 20 56 69 65 77 00        GO...     View.

0000025c <__c.2457>:
     25c:	53 65 74 20 57 65 6c 64 20 54 79 70 65 20 2d 20     Set Weld Type - 
	...

0000026d <__c.2455>:
     26d:	47 4f 2e 2e 2e 20 20 20 20 20 56 69 65 77 00        GO...     View.

0000027c <__c.2453>:
     27c:	53 65 74 20 54 72 69 67 20 4c 65 76 65 6c 20 2d     Set Trig Level -
	...

0000028d <__c.2451>:
     28d:	47 4f 2e 2e 2e 20 20 20 20 20 56 69 65 77 00        GO...     View.

0000029c <__c.2449>:
     29c:	53 65 74 20 54 72 69 67 20 54 79 70 65 20 2d 20     Set Trig Type - 
	...

000002ad <__c.2447>:
     2ad:	47 4f 2e 2e 2e 20 20 20 20 20 56 69 65 77 00        GO...     View.

000002bc <__c.2445>:
     2bc:	53 65 74 20 54 72 69 67 20 44 65 6c 61 79 20 2d     Set Trig Delay -
	...

000002cd <__c.2443>:
     2cd:	47 4f 2e 2e 2e 20 20 20 20 20 56 69 65 77 00        GO...     View.

000002dc <__c.2441>:
     2dc:	53 65 74 20 49 50 20 4c 65 6e 67 74 68 20 2d 20     Set IP Length - 
	...

000002ed <__c.2439>:
     2ed:	47 4f 2e 2e 2e 20 20 20 20 20 56 69 65 77 00        GO...     View.

000002fc <__c.2437>:
     2fc:	53 65 74 20 50 31 20 4c 65 6e 67 74 68 20 2d 20     Set P1 Length - 
	...

0000030d <__c.2435>:
     30d:	47 4f 2e 2e 2e 20 20 20 20 20 56 69 65 77 00        GO...     View.

0000031c <__c.2433>:
     31c:	53 65 74 20 50 30 20 4c 65 6e 67 74 68 20 2d 20     Set P0 Length - 
	...

0000032d <__c.2584>:
     32d:	46 53 00                                            FS.

00000330 <__c.2582>:
     330:	43 54 00                                            CT.

00000333 <__c.2580>:
     333:	20 32 5f 50 20 20 20 20 20 20 20 52 55 4e 20 20      2_P       RUN  
	...

00000344 <__c.2578>:
     344:	20 32 5f 50 20 20 20 20 20 20 20 57 41 49 54 20      2_P       WAIT 
	...

00000355 <__c.2576>:
     355:	20 32 5f 50 20 20 20 44 49 53 41 42 4c 45 44 20      2_P   DISABLED 
	...

00000366 <__c.2574>:
     366:	20 32 5f 50 20 20 20 20 20 54 52 49 47 27 44 20      2_P     TRIG'D 
	...

00000377 <__c.2569>:
     377:	20 32 5f 50 20 20 20 20 20 20 20 52 44 59 21 20      2_P       RDY! 
	...

00000388 <__c.2566>:
     388:	20 31 5f 50 20 20 20 20 20 20 20 52 55 4e 20 20      1_P       RUN  
	...

00000399 <__c.2564>:
     399:	20 31 5f 50 20 20 20 20 20 20 20 57 41 49 54 20      1_P       WAIT 
	...

000003aa <__c.2562>:
     3aa:	20 31 5f 50 20 20 20 44 49 53 41 42 4c 45 44 20      1_P   DISABLED 
	...

000003bb <__c.2560>:
     3bb:	20 31 5f 50 20 20 20 20 20 54 52 49 47 27 44 20      1_P     TRIG'D 
	...

000003cc <__c.2555>:
     3cc:	20 31 5f 50 20 20 20 20 20 20 20 52 44 59 21 20      1_P       RDY! 
	...

000003dd <__c.2552>:
     3dd:	20 4d 41 4e 20 20 20 20 20 20 20 57 41 49 54 20      MAN       WAIT 
	...

000003ee <__c.2550>:
     3ee:	20 4d 41 4e 20 20 20 20 20 20 20 44 49 53 2e 20      MAN       DIS. 
	...

000003ff <__c.2548>:
     3ff:	20 4d 41 4e 20 20 20 20 20 20 20 52 44 59 21 20      MAN       RDY! 
	...

00000410 <__c.2546>:
     410:	20 4d 41 4e 20 20 20 20 20 20 20 52 55 4e 20 20      MAN       RUN  
	...

00000421 <__c.2544>:
     421:	54 59 50 45 3a 20 20 20 20 53 54 41 54 55 53 3a     TYPE:    STATUS:
	...

00000432 <__c.2467>:
     432:	20 43 68 65 63 6b 20 42 72 65 61 6b 65 72 21 20      Check Breaker! 
	...

00000443 <__c.2465>:
     443:	41 43 20 4e 6f 74 20 44 65 74 65 63 74 65 64 3a     AC Not Detected:
	...

00000454 <__ctors_end>:
     454:	11 24       	eor	r1, r1
     456:	1f be       	out	0x3f, r1	; 63
     458:	cf ef       	ldi	r28, 0xFF	; 255
     45a:	d0 e1       	ldi	r29, 0x10	; 16
     45c:	de bf       	out	0x3e, r29	; 62
     45e:	cd bf       	out	0x3d, r28	; 61

00000460 <__do_copy_data>:
     460:	11 e0       	ldi	r17, 0x01	; 1
     462:	a0 e0       	ldi	r26, 0x00	; 0
     464:	b1 e0       	ldi	r27, 0x01	; 1
     466:	ea e8       	ldi	r30, 0x8A	; 138
     468:	fe e2       	ldi	r31, 0x2E	; 46
     46a:	02 c0       	rjmp	.+4      	; 0x470 <__do_copy_data+0x10>
     46c:	05 90       	lpm	r0, Z+
     46e:	0d 92       	st	X+, r0
     470:	ac 30       	cpi	r26, 0x0C	; 12
     472:	b1 07       	cpc	r27, r17
     474:	d9 f7       	brne	.-10     	; 0x46c <__do_copy_data+0xc>

00000476 <__do_clear_bss>:
     476:	23 e0       	ldi	r18, 0x03	; 3
     478:	ac e0       	ldi	r26, 0x0C	; 12
     47a:	b1 e0       	ldi	r27, 0x01	; 1
     47c:	01 c0       	rjmp	.+2      	; 0x480 <.do_clear_bss_start>

0000047e <.do_clear_bss_loop>:
     47e:	1d 92       	st	X+, r1

00000480 <.do_clear_bss_start>:
     480:	ab 36       	cpi	r26, 0x6B	; 107
     482:	b2 07       	cpc	r27, r18
     484:	e1 f7       	brne	.-8      	; 0x47e <.do_clear_bss_loop>
     486:	0e 94 0b 07 	call	0xe16	; 0xe16 <main>
     48a:	0c 94 43 17 	jmp	0x2e86	; 0x2e86 <_exit>

0000048e <__bad_interrupt>:
     48e:	0c 94 00 00 	jmp	0	; 0x0 <__vectors>

00000492 <__vector_16>:
     492:	1f 92       	push	r1
     494:	0f 92       	push	r0
     496:	0f b6       	in	r0, 0x3f	; 63
     498:	0f 92       	push	r0
     49a:	11 24       	eor	r1, r1
     49c:	4f 93       	push	r20
     49e:	5f 93       	push	r21
     4a0:	6f 93       	push	r22
     4a2:	7f 93       	push	r23
     4a4:	8f 93       	push	r24
     4a6:	9f 93       	push	r25
     4a8:	af 93       	push	r26
     4aa:	bf 93       	push	r27
     4ac:	80 91 27 01 	lds	r24, 0x0127
     4b0:	90 91 28 01 	lds	r25, 0x0128
     4b4:	a0 91 29 01 	lds	r26, 0x0129
     4b8:	b0 91 2a 01 	lds	r27, 0x012A
     4bc:	01 96       	adiw	r24, 0x01	; 1
     4be:	a1 1d       	adc	r26, r1
     4c0:	b1 1d       	adc	r27, r1
     4c2:	80 93 27 01 	sts	0x0127, r24
     4c6:	90 93 28 01 	sts	0x0128, r25
     4ca:	a0 93 29 01 	sts	0x0129, r26
     4ce:	b0 93 2a 01 	sts	0x012A, r27
     4d2:	80 91 18 01 	lds	r24, 0x0118
     4d6:	88 23       	and	r24, r24
     4d8:	21 f1       	breq	.+72     	; 0x522 <__vector_16+0x90>
     4da:	80 91 27 01 	lds	r24, 0x0127
     4de:	90 91 28 01 	lds	r25, 0x0128
     4e2:	a0 91 29 01 	lds	r26, 0x0129
     4e6:	b0 91 2a 01 	lds	r27, 0x012A
     4ea:	40 91 14 01 	lds	r20, 0x0114
     4ee:	50 91 15 01 	lds	r21, 0x0115
     4f2:	60 91 16 01 	lds	r22, 0x0116
     4f6:	70 91 17 01 	lds	r23, 0x0117
     4fa:	84 1b       	sub	r24, r20
     4fc:	95 0b       	sbc	r25, r21
     4fe:	a6 0b       	sbc	r26, r22
     500:	b7 0b       	sbc	r27, r23
     502:	40 91 10 01 	lds	r20, 0x0110
     506:	50 91 11 01 	lds	r21, 0x0111
     50a:	60 91 12 01 	lds	r22, 0x0112
     50e:	70 91 13 01 	lds	r23, 0x0113
     512:	48 17       	cp	r20, r24
     514:	59 07       	cpc	r21, r25
     516:	6a 07       	cpc	r22, r26
     518:	7b 07       	cpc	r23, r27
     51a:	18 f4       	brcc	.+6      	; 0x522 <__vector_16+0x90>
     51c:	10 92 18 01 	sts	0x0118, r1
     520:	5e 98       	cbi	0x0b, 6	; 11
     522:	bf 91       	pop	r27
     524:	af 91       	pop	r26
     526:	9f 91       	pop	r25
     528:	8f 91       	pop	r24
     52a:	7f 91       	pop	r23
     52c:	6f 91       	pop	r22
     52e:	5f 91       	pop	r21
     530:	4f 91       	pop	r20
     532:	0f 90       	pop	r0
     534:	0f be       	out	0x3f, r0	; 63
     536:	0f 90       	pop	r0
     538:	1f 90       	pop	r1
     53a:	18 95       	reti

0000053c <InitializeTimers>:
     53c:	10 92 26 01 	sts	0x0126, r1
     540:	10 92 22 01 	sts	0x0122, r1
     544:	e1 e8       	ldi	r30, 0x81	; 129
     546:	f0 e0       	ldi	r31, 0x00	; 0
     548:	80 81       	ld	r24, Z
     54a:	88 7f       	andi	r24, 0xF8	; 248
     54c:	80 83       	st	Z, r24
     54e:	10 92 85 00 	sts	0x0085, r1
     552:	10 92 84 00 	sts	0x0084, r1
     556:	80 ed       	ldi	r24, 0xD0	; 208
     558:	92 e0       	ldi	r25, 0x02	; 2
     55a:	90 93 89 00 	sts	0x0089, r25
     55e:	80 93 88 00 	sts	0x0088, r24
     562:	88 e0       	ldi	r24, 0x08	; 8
     564:	80 83       	st	Z, r24
     566:	b1 9a       	sbi	0x16, 1	; 22
     568:	82 e0       	ldi	r24, 0x02	; 2
     56a:	80 93 6f 00 	sts	0x006F, r24
     56e:	9a ef       	ldi	r25, 0xFA	; 250
     570:	95 bd       	out	0x25, r25	; 37
     572:	16 bc       	out	0x26, r1	; 38
     574:	9f e8       	ldi	r25, 0x8F	; 143
     576:	97 bd       	out	0x27, r25	; 39
     578:	84 bd       	out	0x24, r24	; 36
     57a:	a9 9a       	sbi	0x15, 1	; 21
     57c:	80 93 6e 00 	sts	0x006E, r24
     580:	08 95       	ret

00000582 <StartSystemTimer>:
     582:	85 e0       	ldi	r24, 0x05	; 5
     584:	85 bd       	out	0x25, r24	; 37
     586:	81 e0       	ldi	r24, 0x01	; 1
     588:	80 93 19 01 	sts	0x0119, r24
     58c:	08 95       	ret

0000058e <GetSysTicks>:
     58e:	60 91 27 01 	lds	r22, 0x0127
     592:	70 91 28 01 	lds	r23, 0x0128
     596:	80 91 29 01 	lds	r24, 0x0129
     59a:	90 91 2a 01 	lds	r25, 0x012A
     59e:	08 95       	ret

000005a0 <Beep>:
     5a0:	2a e0       	ldi	r18, 0x0A	; 10
     5a2:	30 e0       	ldi	r19, 0x00	; 0
     5a4:	40 e0       	ldi	r20, 0x00	; 0
     5a6:	50 e0       	ldi	r21, 0x00	; 0
     5a8:	0e 94 ba 16 	call	0x2d74	; 0x2d74 <__udivmodsi4>
     5ac:	21 15       	cp	r18, r1
     5ae:	31 05       	cpc	r19, r1
     5b0:	41 05       	cpc	r20, r1
     5b2:	51 05       	cpc	r21, r1
     5b4:	49 f0       	breq	.+18     	; 0x5c8 <Beep+0x28>
     5b6:	20 93 10 01 	sts	0x0110, r18
     5ba:	30 93 11 01 	sts	0x0111, r19
     5be:	40 93 12 01 	sts	0x0112, r20
     5c2:	50 93 13 01 	sts	0x0113, r21
     5c6:	0c c0       	rjmp	.+24     	; 0x5e0 <Beep+0x40>
     5c8:	81 e0       	ldi	r24, 0x01	; 1
     5ca:	90 e0       	ldi	r25, 0x00	; 0
     5cc:	a0 e0       	ldi	r26, 0x00	; 0
     5ce:	b0 e0       	ldi	r27, 0x00	; 0
     5d0:	80 93 10 01 	sts	0x0110, r24
     5d4:	90 93 11 01 	sts	0x0111, r25
     5d8:	a0 93 12 01 	sts	0x0112, r26
     5dc:	b0 93 13 01 	sts	0x0113, r27
     5e0:	81 e0       	ldi	r24, 0x01	; 1
     5e2:	80 93 18 01 	sts	0x0118, r24
     5e6:	80 91 27 01 	lds	r24, 0x0127
     5ea:	90 91 28 01 	lds	r25, 0x0128
     5ee:	a0 91 29 01 	lds	r26, 0x0129
     5f2:	b0 91 2a 01 	lds	r27, 0x012A
     5f6:	80 93 14 01 	sts	0x0114, r24
     5fa:	90 93 15 01 	sts	0x0115, r25
     5fe:	a0 93 16 01 	sts	0x0116, r26
     602:	b0 93 17 01 	sts	0x0117, r27
     606:	5e 9a       	sbi	0x0b, 6	; 11
     608:	08 95       	ret

0000060a <StartWeldCycle>:
     60a:	0f 93       	push	r16
     60c:	1f 93       	push	r17
     60e:	cf 93       	push	r28
     610:	df 93       	push	r29
     612:	fc 01       	movw	r30, r24
     614:	86 81       	ldd	r24, Z+6	; 0x06
     616:	80 93 22 01 	sts	0x0122, r24
     61a:	80 91 22 01 	lds	r24, 0x0122
     61e:	81 11       	cpse	r24, r1
     620:	3b c0       	rjmp	.+118    	; 0x698 <StartWeldCycle+0x8e>
     622:	87 81       	ldd	r24, Z+7	; 0x07
     624:	80 93 23 01 	sts	0x0123, r24
     628:	00 81       	ld	r16, Z
     62a:	11 81       	ldd	r17, Z+1	; 0x01
     62c:	c2 e3       	ldi	r28, 0x32	; 50
     62e:	d0 e0       	ldi	r29, 0x00	; 0
     630:	c8 01       	movw	r24, r16
     632:	be 01       	movw	r22, r28
     634:	0e 94 a6 16 	call	0x2d4c	; 0x2d4c <__udivmodhi4>
     638:	70 93 1d 01 	sts	0x011D, r23
     63c:	60 93 1c 01 	sts	0x011C, r22
     640:	24 81       	ldd	r18, Z+4	; 0x04
     642:	35 81       	ldd	r19, Z+5	; 0x05
     644:	20 0f       	add	r18, r16
     646:	31 1f       	adc	r19, r17
     648:	c9 01       	movw	r24, r18
     64a:	be 01       	movw	r22, r28
     64c:	0e 94 a6 16 	call	0x2d4c	; 0x2d4c <__udivmodhi4>
     650:	70 93 21 01 	sts	0x0121, r23
     654:	60 93 20 01 	sts	0x0120, r22
     658:	82 81       	ldd	r24, Z+2	; 0x02
     65a:	93 81       	ldd	r25, Z+3	; 0x03
     65c:	82 0f       	add	r24, r18
     65e:	93 1f       	adc	r25, r19
     660:	be 01       	movw	r22, r28
     662:	0e 94 a6 16 	call	0x2d4c	; 0x2d4c <__udivmodhi4>
     666:	70 93 1f 01 	sts	0x011F, r23
     66a:	60 93 1e 01 	sts	0x011E, r22
     66e:	10 92 25 01 	sts	0x0125, r1
     672:	10 92 24 01 	sts	0x0124, r1
     676:	0e 94 a3 16 	call	0x2d46	; 0x2d46 <IsWeldEnabled>
     67a:	88 23       	and	r24, r24
     67c:	69 f0       	breq	.+26     	; 0x698 <StartWeldCycle+0x8e>
     67e:	81 e0       	ldi	r24, 0x01	; 1
     680:	80 93 26 01 	sts	0x0126, r24
     684:	10 92 1b 01 	sts	0x011B, r1
     688:	10 92 1a 01 	sts	0x011A, r1
     68c:	df 91       	pop	r29
     68e:	cf 91       	pop	r28
     690:	1f 91       	pop	r17
     692:	0f 91       	pop	r16
     694:	0c 94 f0 05 	jmp	0xbe0	; 0xbe0 <vfdClr>
     698:	df 91       	pop	r29
     69a:	cf 91       	pop	r28
     69c:	1f 91       	pop	r17
     69e:	0f 91       	pop	r16
     6a0:	08 95       	ret

000006a2 <SetNextWeldState>:
     6a2:	80 91 1a 01 	lds	r24, 0x011A
     6a6:	90 91 1b 01 	lds	r25, 0x011B
     6aa:	90 93 0f 01 	sts	0x010F, r25
     6ae:	80 93 0e 01 	sts	0x010E, r24
     6b2:	40 91 23 01 	lds	r20, 0x0123
     6b6:	42 30       	cpi	r20, 0x02	; 2
     6b8:	09 f0       	breq	.+2      	; 0x6bc <SetNextWeldState+0x1a>
     6ba:	6f c0       	rjmp	.+222    	; 0x79a <SetNextWeldState+0xf8>
     6bc:	80 91 22 01 	lds	r24, 0x0122
     6c0:	81 30       	cpi	r24, 0x01	; 1
     6c2:	41 f1       	breq	.+80     	; 0x714 <SetNextWeldState+0x72>
     6c4:	18 f0       	brcs	.+6      	; 0x6cc <SetNextWeldState+0x2a>
     6c6:	82 30       	cpi	r24, 0x02	; 2
     6c8:	b9 f1       	breq	.+110    	; 0x738 <SetNextWeldState+0x96>
     6ca:	5c c0       	rjmp	.+184    	; 0x784 <SetNextWeldState+0xe2>
     6cc:	0e 94 ad 13 	call	0x275a	; 0x275a <WaitZeroX>
     6d0:	81 11       	cpse	r24, r1
     6d2:	5f 9a       	sbi	0x0b, 7	; 11
     6d4:	80 91 1a 01 	lds	r24, 0x011A
     6d8:	90 91 1b 01 	lds	r25, 0x011B
     6dc:	20 91 0c 01 	lds	r18, 0x010C
     6e0:	30 91 0d 01 	lds	r19, 0x010D
     6e4:	82 0f       	add	r24, r18
     6e6:	93 1f       	adc	r25, r19
     6e8:	20 91 0e 01 	lds	r18, 0x010E
     6ec:	30 91 0f 01 	lds	r19, 0x010F
     6f0:	82 1b       	sub	r24, r18
     6f2:	93 0b       	sbc	r25, r19
     6f4:	90 93 0d 01 	sts	0x010D, r25
     6f8:	80 93 0c 01 	sts	0x010C, r24
     6fc:	20 91 1c 01 	lds	r18, 0x011C
     700:	30 91 1d 01 	lds	r19, 0x011D
     704:	28 0f       	add	r18, r24
     706:	39 1f       	adc	r19, r25
     708:	30 93 25 01 	sts	0x0125, r19
     70c:	20 93 24 01 	sts	0x0124, r18
     710:	81 e0       	ldi	r24, 0x01	; 1
     712:	35 c0       	rjmp	.+106    	; 0x77e <SetNextWeldState+0xdc>
     714:	5f 98       	cbi	0x0b, 7	; 11
     716:	80 91 20 01 	lds	r24, 0x0120
     71a:	90 91 21 01 	lds	r25, 0x0121
     71e:	20 91 0c 01 	lds	r18, 0x010C
     722:	30 91 0d 01 	lds	r19, 0x010D
     726:	82 0f       	add	r24, r18
     728:	93 1f       	adc	r25, r19
     72a:	90 93 25 01 	sts	0x0125, r25
     72e:	80 93 24 01 	sts	0x0124, r24
     732:	40 93 22 01 	sts	0x0122, r20
     736:	31 c0       	rjmp	.+98     	; 0x79a <SetNextWeldState+0xf8>
     738:	0e 94 ad 13 	call	0x275a	; 0x275a <WaitZeroX>
     73c:	81 11       	cpse	r24, r1
     73e:	5f 9a       	sbi	0x0b, 7	; 11
     740:	80 91 1a 01 	lds	r24, 0x011A
     744:	90 91 1b 01 	lds	r25, 0x011B
     748:	20 91 0c 01 	lds	r18, 0x010C
     74c:	30 91 0d 01 	lds	r19, 0x010D
     750:	82 0f       	add	r24, r18
     752:	93 1f       	adc	r25, r19
     754:	20 91 0e 01 	lds	r18, 0x010E
     758:	30 91 0f 01 	lds	r19, 0x010F
     75c:	82 1b       	sub	r24, r18
     75e:	93 0b       	sbc	r25, r19
     760:	90 93 0d 01 	sts	0x010D, r25
     764:	80 93 0c 01 	sts	0x010C, r24
     768:	20 91 1e 01 	lds	r18, 0x011E
     76c:	30 91 1f 01 	lds	r19, 0x011F
     770:	28 0f       	add	r18, r24
     772:	39 1f       	adc	r19, r25
     774:	30 93 25 01 	sts	0x0125, r19
     778:	20 93 24 01 	sts	0x0124, r18
     77c:	83 e0       	ldi	r24, 0x03	; 3
     77e:	80 93 22 01 	sts	0x0122, r24
     782:	0b c0       	rjmp	.+22     	; 0x79a <SetNextWeldState+0xf8>
     784:	8f ef       	ldi	r24, 0xFF	; 255
     786:	9f ef       	ldi	r25, 0xFF	; 255
     788:	90 93 25 01 	sts	0x0125, r25
     78c:	80 93 24 01 	sts	0x0124, r24
     790:	5f 98       	cbi	0x0b, 7	; 11
     792:	10 92 22 01 	sts	0x0122, r1
     796:	10 92 26 01 	sts	0x0126, r1
     79a:	80 91 23 01 	lds	r24, 0x0123
     79e:	81 30       	cpi	r24, 0x01	; 1
     7a0:	a9 f5       	brne	.+106    	; 0x80c <SetNextWeldState+0x16a>
     7a2:	80 91 22 01 	lds	r24, 0x0122
     7a6:	81 11       	cpse	r24, r1
     7a8:	26 c0       	rjmp	.+76     	; 0x7f6 <SetNextWeldState+0x154>
     7aa:	0e 94 ad 13 	call	0x275a	; 0x275a <WaitZeroX>
     7ae:	81 11       	cpse	r24, r1
     7b0:	5f 9a       	sbi	0x0b, 7	; 11
     7b2:	80 91 1a 01 	lds	r24, 0x011A
     7b6:	90 91 1b 01 	lds	r25, 0x011B
     7ba:	20 91 0c 01 	lds	r18, 0x010C
     7be:	30 91 0d 01 	lds	r19, 0x010D
     7c2:	82 0f       	add	r24, r18
     7c4:	93 1f       	adc	r25, r19
     7c6:	20 91 0e 01 	lds	r18, 0x010E
     7ca:	30 91 0f 01 	lds	r19, 0x010F
     7ce:	82 1b       	sub	r24, r18
     7d0:	93 0b       	sbc	r25, r19
     7d2:	90 93 0d 01 	sts	0x010D, r25
     7d6:	80 93 0c 01 	sts	0x010C, r24
     7da:	20 91 1c 01 	lds	r18, 0x011C
     7de:	30 91 1d 01 	lds	r19, 0x011D
     7e2:	28 0f       	add	r18, r24
     7e4:	39 1f       	adc	r19, r25
     7e6:	30 93 25 01 	sts	0x0125, r19
     7ea:	20 93 24 01 	sts	0x0124, r18
     7ee:	81 e0       	ldi	r24, 0x01	; 1
     7f0:	80 93 22 01 	sts	0x0122, r24
     7f4:	0b c0       	rjmp	.+22     	; 0x80c <SetNextWeldState+0x16a>
     7f6:	8f ef       	ldi	r24, 0xFF	; 255
     7f8:	9f ef       	ldi	r25, 0xFF	; 255
     7fa:	90 93 25 01 	sts	0x0125, r25
     7fe:	80 93 24 01 	sts	0x0124, r24
     802:	5f 98       	cbi	0x0b, 7	; 11
     804:	10 92 22 01 	sts	0x0122, r1
     808:	10 92 26 01 	sts	0x0126, r1
     80c:	80 91 26 01 	lds	r24, 0x0126
     810:	81 11       	cpse	r24, r1
     812:	08 c0       	rjmp	.+16     	; 0x824 <SetNextWeldState+0x182>
     814:	5f 98       	cbi	0x0b, 7	; 11
     816:	85 e0       	ldi	r24, 0x05	; 5
     818:	80 93 22 01 	sts	0x0122, r24
     81c:	10 92 0d 01 	sts	0x010D, r1
     820:	10 92 0c 01 	sts	0x010C, r1
     824:	08 95       	ret

00000826 <__vector_13>:
     826:	1f 92       	push	r1
     828:	0f 92       	push	r0
     82a:	0f b6       	in	r0, 0x3f	; 63
     82c:	0f 92       	push	r0
     82e:	11 24       	eor	r1, r1
     830:	2f 93       	push	r18
     832:	3f 93       	push	r19
     834:	4f 93       	push	r20
     836:	5f 93       	push	r21
     838:	6f 93       	push	r22
     83a:	7f 93       	push	r23
     83c:	8f 93       	push	r24
     83e:	9f 93       	push	r25
     840:	af 93       	push	r26
     842:	bf 93       	push	r27
     844:	ef 93       	push	r30
     846:	ff 93       	push	r31
     848:	80 91 1a 01 	lds	r24, 0x011A
     84c:	90 91 1b 01 	lds	r25, 0x011B
     850:	9c 01       	movw	r18, r24
     852:	2f 5f       	subi	r18, 0xFF	; 255
     854:	3f 4f       	sbci	r19, 0xFF	; 255
     856:	30 93 1b 01 	sts	0x011B, r19
     85a:	20 93 1a 01 	sts	0x011A, r18
     85e:	20 91 24 01 	lds	r18, 0x0124
     862:	30 91 25 01 	lds	r19, 0x0125
     866:	82 17       	cp	r24, r18
     868:	93 07       	cpc	r25, r19
     86a:	31 f4       	brne	.+12     	; 0x878 <__vector_13+0x52>
     86c:	80 91 26 01 	lds	r24, 0x0126
     870:	81 30       	cpi	r24, 0x01	; 1
     872:	11 f4       	brne	.+4      	; 0x878 <__vector_13+0x52>
     874:	0e 94 51 03 	call	0x6a2	; 0x6a2 <SetNextWeldState>
     878:	ff 91       	pop	r31
     87a:	ef 91       	pop	r30
     87c:	bf 91       	pop	r27
     87e:	af 91       	pop	r26
     880:	9f 91       	pop	r25
     882:	8f 91       	pop	r24
     884:	7f 91       	pop	r23
     886:	6f 91       	pop	r22
     888:	5f 91       	pop	r21
     88a:	4f 91       	pop	r20
     88c:	3f 91       	pop	r19
     88e:	2f 91       	pop	r18
     890:	0f 90       	pop	r0
     892:	0f be       	out	0x3f, r0	; 63
     894:	0f 90       	pop	r0
     896:	1f 90       	pop	r1
     898:	18 95       	reti

0000089a <SetActiveWeldState>:
     89a:	cf 93       	push	r28
     89c:	c8 2f       	mov	r28, r24
     89e:	80 91 22 01 	lds	r24, 0x0122
     8a2:	88 23       	and	r24, r24
     8a4:	41 f0       	breq	.+16     	; 0x8b6 <SetActiveWeldState+0x1c>
     8a6:	80 91 22 01 	lds	r24, 0x0122
     8aa:	84 30       	cpi	r24, 0x04	; 4
     8ac:	21 f0       	breq	.+8      	; 0x8b6 <SetActiveWeldState+0x1c>
     8ae:	80 91 22 01 	lds	r24, 0x0122
     8b2:	85 30       	cpi	r24, 0x05	; 5
     8b4:	49 f4       	brne	.+18     	; 0x8c8 <SetActiveWeldState+0x2e>
     8b6:	0e 94 a3 16 	call	0x2d46	; 0x2d46 <IsWeldEnabled>
     8ba:	88 23       	and	r24, r24
     8bc:	41 f0       	breq	.+16     	; 0x8ce <SetActiveWeldState+0x34>
     8be:	c0 93 22 01 	sts	0x0122, r28
     8c2:	81 e0       	ldi	r24, 0x01	; 1
     8c4:	90 e0       	ldi	r25, 0x00	; 0
     8c6:	05 c0       	rjmp	.+10     	; 0x8d2 <SetActiveWeldState+0x38>
     8c8:	8f ef       	ldi	r24, 0xFF	; 255
     8ca:	9f ef       	ldi	r25, 0xFF	; 255
     8cc:	02 c0       	rjmp	.+4      	; 0x8d2 <SetActiveWeldState+0x38>
     8ce:	80 e0       	ldi	r24, 0x00	; 0
     8d0:	90 e0       	ldi	r25, 0x00	; 0
     8d2:	cf 91       	pop	r28
     8d4:	08 95       	ret

000008d6 <GetActiveWeldState>:
     8d6:	80 91 22 01 	lds	r24, 0x0122
     8da:	08 95       	ret

000008dc <EmergencyHaltWeld>:
     8dc:	10 92 26 01 	sts	0x0126, r1
     8e0:	85 e0       	ldi	r24, 0x05	; 5
     8e2:	80 93 22 01 	sts	0x0122, r24
     8e6:	e1 e8       	ldi	r30, 0x81	; 129
     8e8:	f0 e0       	ldi	r31, 0x00	; 0
     8ea:	80 81       	ld	r24, Z
     8ec:	88 7f       	andi	r24, 0xF8	; 248
     8ee:	80 83       	st	Z, r24
     8f0:	5f 98       	cbi	0x0b, 7	; 11
     8f2:	08 95       	ret

000008f4 <vfdWaitBusy>:
     8f4:	18 b8       	out	0x08, r1	; 8
     8f6:	17 b8       	out	0x07, r1	; 7
     8f8:	15 98       	cbi	0x02, 5	; 2
     8fa:	16 9a       	sbi	0x02, 6	; 2
     8fc:	8a e0       	ldi	r24, 0x0A	; 10
     8fe:	8a 95       	dec	r24
     900:	f1 f7       	brne	.-4      	; 0x8fe <vfdWaitBusy+0xa>
     902:	17 9a       	sbi	0x02, 7	; 2
     904:	91 e7       	ldi	r25, 0x71	; 113
     906:	9a 95       	dec	r25
     908:	f1 f7       	brne	.-4      	; 0x906 <vfdWaitBusy+0x12>
     90a:	00 00       	nop
     90c:	86 b1       	in	r24, 0x06	; 6
     90e:	17 98       	cbi	0x02, 7	; 2
     910:	91 e7       	ldi	r25, 0x71	; 113
     912:	9a 95       	dec	r25
     914:	f1 f7       	brne	.-4      	; 0x912 <vfdWaitBusy+0x1e>
     916:	00 00       	nop
     918:	87 fd       	sbrc	r24, 7
     91a:	f3 cf       	rjmp	.-26     	; 0x902 <vfdWaitBusy+0xe>
     91c:	8f ef       	ldi	r24, 0xFF	; 255
     91e:	87 b9       	out	0x07, r24	; 7
     920:	08 95       	ret

00000922 <vfdSendCmd>:
     922:	cf 93       	push	r28
     924:	df 93       	push	r29
     926:	1f 92       	push	r1
     928:	cd b7       	in	r28, 0x3d	; 61
     92a:	de b7       	in	r29, 0x3e	; 62
     92c:	89 83       	std	Y+1, r24	; 0x01
     92e:	0e 94 7a 04 	call	0x8f4	; 0x8f4 <vfdWaitBusy>
     932:	15 98       	cbi	0x02, 5	; 2
     934:	16 98       	cbi	0x02, 6	; 2
     936:	89 81       	ldd	r24, Y+1	; 0x01
     938:	88 b9       	out	0x08, r24	; 8
     93a:	8a e0       	ldi	r24, 0x0A	; 10
     93c:	8a 95       	dec	r24
     93e:	f1 f7       	brne	.-4      	; 0x93c <vfdSendCmd+0x1a>
     940:	17 9a       	sbi	0x02, 7	; 2
     942:	e1 e7       	ldi	r30, 0x71	; 113
     944:	ea 95       	dec	r30
     946:	f1 f7       	brne	.-4      	; 0x944 <vfdSendCmd+0x22>
     948:	00 00       	nop
     94a:	17 98       	cbi	0x02, 7	; 2
     94c:	0f 90       	pop	r0
     94e:	df 91       	pop	r29
     950:	cf 91       	pop	r28
     952:	08 95       	ret

00000954 <vfdSendData>:
     954:	cf 93       	push	r28
     956:	df 93       	push	r29
     958:	1f 92       	push	r1
     95a:	cd b7       	in	r28, 0x3d	; 61
     95c:	de b7       	in	r29, 0x3e	; 62
     95e:	89 83       	std	Y+1, r24	; 0x01
     960:	0e 94 7a 04 	call	0x8f4	; 0x8f4 <vfdWaitBusy>
     964:	15 9a       	sbi	0x02, 5	; 2
     966:	16 98       	cbi	0x02, 6	; 2
     968:	89 81       	ldd	r24, Y+1	; 0x01
     96a:	88 b9       	out	0x08, r24	; 8
     96c:	8a e0       	ldi	r24, 0x0A	; 10
     96e:	8a 95       	dec	r24
     970:	f1 f7       	brne	.-4      	; 0x96e <vfdSendData+0x1a>
     972:	17 9a       	sbi	0x02, 7	; 2
     974:	e1 e7       	ldi	r30, 0x71	; 113
     976:	ea 95       	dec	r30
     978:	f1 f7       	brne	.-4      	; 0x976 <vfdSendData+0x22>
     97a:	00 00       	nop
     97c:	17 98       	cbi	0x02, 7	; 2
     97e:	0f 90       	pop	r0
     980:	df 91       	pop	r29
     982:	cf 91       	pop	r28
     984:	08 95       	ret

00000986 <vfdGotoXY>:
     986:	61 30       	cpi	r22, 0x01	; 1
     988:	11 f0       	breq	.+4      	; 0x98e <vfdGotoXY+0x8>
     98a:	90 e0       	ldi	r25, 0x00	; 0
     98c:	01 c0       	rjmp	.+2      	; 0x990 <vfdGotoXY+0xa>
     98e:	90 e4       	ldi	r25, 0x40	; 64
     990:	20 91 2f 01 	lds	r18, 0x012F
     994:	30 91 30 01 	lds	r19, 0x0130
     998:	28 0f       	add	r18, r24
     99a:	31 1d       	adc	r19, r1
     99c:	28 32       	cpi	r18, 0x28	; 40
     99e:	31 05       	cpc	r19, r1
     9a0:	34 f0       	brlt	.+12     	; 0x9ae <vfdGotoXY+0x28>
     9a2:	20 91 2f 01 	lds	r18, 0x012F
     9a6:	30 91 30 01 	lds	r19, 0x0130
     9aa:	28 52       	subi	r18, 0x28	; 40
     9ac:	04 c0       	rjmp	.+8      	; 0x9b6 <vfdGotoXY+0x30>
     9ae:	20 91 2f 01 	lds	r18, 0x012F
     9b2:	30 91 30 01 	lds	r19, 0x0130
     9b6:	28 0f       	add	r18, r24
     9b8:	82 2f       	mov	r24, r18
     9ba:	89 0f       	add	r24, r25
     9bc:	80 68       	ori	r24, 0x80	; 128
     9be:	0c 94 91 04 	jmp	0x922	; 0x922 <vfdSendCmd>

000009c2 <vfdPrintStr>:
     9c2:	ef 92       	push	r14
     9c4:	ff 92       	push	r15
     9c6:	0f 93       	push	r16
     9c8:	1f 93       	push	r17
     9ca:	cf 93       	push	r28
     9cc:	df 93       	push	r29
     9ce:	1f 92       	push	r1
     9d0:	cd b7       	in	r28, 0x3d	; 61
     9d2:	de b7       	in	r29, 0x3e	; 62
     9d4:	1f b7       	in	r17, 0x3f	; 63
     9d6:	f8 94       	cli
     9d8:	08 2f       	mov	r16, r24
     9da:	7c 01       	movw	r14, r24
     9dc:	8e 2d       	mov	r24, r14
     9de:	80 1b       	sub	r24, r16
     9e0:	86 17       	cp	r24, r22
     9e2:	50 f4       	brcc	.+20     	; 0x9f8 <vfdPrintStr+0x36>
     9e4:	f7 01       	movw	r30, r14
     9e6:	84 91       	lpm	r24, Z
     9e8:	69 83       	std	Y+1, r22	; 0x01
     9ea:	0e 94 aa 04 	call	0x954	; 0x954 <vfdSendData>
     9ee:	ff ef       	ldi	r31, 0xFF	; 255
     9f0:	ef 1a       	sub	r14, r31
     9f2:	ff 0a       	sbc	r15, r31
     9f4:	69 81       	ldd	r22, Y+1	; 0x01
     9f6:	f2 cf       	rjmp	.-28     	; 0x9dc <vfdPrintStr+0x1a>
     9f8:	1f bf       	out	0x3f, r17	; 63
     9fa:	0f 90       	pop	r0
     9fc:	df 91       	pop	r29
     9fe:	cf 91       	pop	r28
     a00:	1f 91       	pop	r17
     a02:	0f 91       	pop	r16
     a04:	ff 90       	pop	r15
     a06:	ef 90       	pop	r14
     a08:	08 95       	ret

00000a0a <vfdPrintStrXY>:
     a0a:	0f 93       	push	r16
     a0c:	1f 93       	push	r17
     a0e:	cf 93       	push	r28
     a10:	df 93       	push	r29
     a12:	ec 01       	movw	r28, r24
     a14:	16 2f       	mov	r17, r22
     a16:	01 30       	cpi	r16, 0x01	; 1
     a18:	a9 f0       	breq	.+42     	; 0xa44 <vfdPrintStrXY+0x3a>
     a1a:	48 f0       	brcs	.+18     	; 0xa2e <vfdPrintStrXY+0x24>
     a1c:	02 30       	cpi	r16, 0x02	; 2
     a1e:	f1 f4       	brne	.+60     	; 0xa5c <vfdPrintStrXY+0x52>
     a20:	80 91 2f 01 	lds	r24, 0x012F
     a24:	90 91 30 01 	lds	r25, 0x0130
     a28:	84 0f       	add	r24, r20
     a2a:	91 1d       	adc	r25, r1
     a2c:	12 c0       	rjmp	.+36     	; 0xa52 <vfdPrintStrXY+0x48>
     a2e:	80 91 2f 01 	lds	r24, 0x012F
     a32:	90 91 30 01 	lds	r25, 0x0130
     a36:	40 97       	sbiw	r24, 0x10	; 16
     a38:	82 0f       	add	r24, r18
     a3a:	91 1d       	adc	r25, r1
     a3c:	97 ff       	sbrs	r25, 7
     a3e:	10 c0       	rjmp	.+32     	; 0xa60 <vfdPrintStrXY+0x56>
     a40:	88 96       	adiw	r24, 0x28	; 40
     a42:	0e c0       	rjmp	.+28     	; 0xa60 <vfdPrintStrXY+0x56>
     a44:	80 91 2f 01 	lds	r24, 0x012F
     a48:	90 91 30 01 	lds	r25, 0x0130
     a4c:	40 96       	adiw	r24, 0x10	; 16
     a4e:	82 0f       	add	r24, r18
     a50:	91 1d       	adc	r25, r1
     a52:	88 32       	cpi	r24, 0x28	; 40
     a54:	91 05       	cpc	r25, r1
     a56:	24 f0       	brlt	.+8      	; 0xa60 <vfdPrintStrXY+0x56>
     a58:	88 97       	sbiw	r24, 0x28	; 40
     a5a:	02 c0       	rjmp	.+4      	; 0xa60 <vfdPrintStrXY+0x56>
     a5c:	80 e0       	ldi	r24, 0x00	; 0
     a5e:	90 e0       	ldi	r25, 0x00	; 0
     a60:	62 2f       	mov	r22, r18
     a62:	0e 94 c3 04 	call	0x986	; 0x986 <vfdGotoXY>
     a66:	61 2f       	mov	r22, r17
     a68:	ce 01       	movw	r24, r28
     a6a:	df 91       	pop	r29
     a6c:	cf 91       	pop	r28
     a6e:	1f 91       	pop	r17
     a70:	0f 91       	pop	r16
     a72:	0c 94 e1 04 	jmp	0x9c2	; 0x9c2 <vfdPrintStr>

00000a76 <vfdCopyStr>:
     a76:	cf 92       	push	r12
     a78:	df 92       	push	r13
     a7a:	ff 92       	push	r15
     a7c:	0f 93       	push	r16
     a7e:	1f 93       	push	r17
     a80:	cf 93       	push	r28
     a82:	df 93       	push	r29
     a84:	1f 92       	push	r1
     a86:	cd b7       	in	r28, 0x3d	; 61
     a88:	de b7       	in	r29, 0x3e	; 62
     a8a:	18 2f       	mov	r17, r24
     a8c:	06 2f       	mov	r16, r22
     a8e:	84 2f       	mov	r24, r20
     a90:	62 2f       	mov	r22, r18
     a92:	99 83       	std	Y+1, r25	; 0x01
     a94:	0e 94 c3 04 	call	0x986	; 0x986 <vfdGotoXY>
     a98:	f1 2e       	mov	r15, r17
     a9a:	c1 2e       	mov	r12, r17
     a9c:	99 81       	ldd	r25, Y+1	; 0x01
     a9e:	d9 2e       	mov	r13, r25
     aa0:	8c 2d       	mov	r24, r12
     aa2:	8f 19       	sub	r24, r15
     aa4:	80 17       	cp	r24, r16
     aa6:	30 f4       	brcc	.+12     	; 0xab4 <vfdCopyStr+0x3e>
     aa8:	f6 01       	movw	r30, r12
     aaa:	81 91       	ld	r24, Z+
     aac:	6f 01       	movw	r12, r30
     aae:	0e 94 aa 04 	call	0x954	; 0x954 <vfdSendData>
     ab2:	f6 cf       	rjmp	.-20     	; 0xaa0 <vfdCopyStr+0x2a>
     ab4:	0f 90       	pop	r0
     ab6:	df 91       	pop	r29
     ab8:	cf 91       	pop	r28
     aba:	1f 91       	pop	r17
     abc:	0f 91       	pop	r16
     abe:	ff 90       	pop	r15
     ac0:	df 90       	pop	r13
     ac2:	cf 90       	pop	r12
     ac4:	08 95       	ret

00000ac6 <vfdShiftLeft>:
     ac6:	cf 93       	push	r28
     ac8:	df 93       	push	r29
     aca:	d8 2f       	mov	r29, r24
     acc:	c0 e0       	ldi	r28, 0x00	; 0
     ace:	cd 17       	cp	r28, r29
     ad0:	d9 f0       	breq	.+54     	; 0xb08 <vfdShiftLeft+0x42>
     ad2:	88 e1       	ldi	r24, 0x18	; 24
     ad4:	0e 94 91 04 	call	0x922	; 0x922 <vfdSendCmd>
     ad8:	20 91 2f 01 	lds	r18, 0x012F
     adc:	30 91 30 01 	lds	r19, 0x0130
     ae0:	27 32       	cpi	r18, 0x27	; 39
     ae2:	31 05       	cpc	r19, r1
     ae4:	5c f4       	brge	.+22     	; 0xafc <vfdShiftLeft+0x36>
     ae6:	20 91 2f 01 	lds	r18, 0x012F
     aea:	30 91 30 01 	lds	r19, 0x0130
     aee:	2f 5f       	subi	r18, 0xFF	; 255
     af0:	3f 4f       	sbci	r19, 0xFF	; 255
     af2:	30 93 30 01 	sts	0x0130, r19
     af6:	20 93 2f 01 	sts	0x012F, r18
     afa:	04 c0       	rjmp	.+8      	; 0xb04 <vfdShiftLeft+0x3e>
     afc:	10 92 30 01 	sts	0x0130, r1
     b00:	10 92 2f 01 	sts	0x012F, r1
     b04:	cf 5f       	subi	r28, 0xFF	; 255
     b06:	e3 cf       	rjmp	.-58     	; 0xace <vfdShiftLeft+0x8>
     b08:	df 91       	pop	r29
     b0a:	cf 91       	pop	r28
     b0c:	08 95       	ret

00000b0e <vfdShiftRight>:
     b0e:	0f 93       	push	r16
     b10:	1f 93       	push	r17
     b12:	cf 93       	push	r28
     b14:	df 93       	push	r29
     b16:	08 2f       	mov	r16, r24
     b18:	10 e0       	ldi	r17, 0x00	; 0
     b1a:	c7 e2       	ldi	r28, 0x27	; 39
     b1c:	d0 e0       	ldi	r29, 0x00	; 0
     b1e:	10 17       	cp	r17, r16
     b20:	d9 f0       	breq	.+54     	; 0xb58 <vfdShiftRight+0x4a>
     b22:	8c e1       	ldi	r24, 0x1C	; 28
     b24:	0e 94 91 04 	call	0x922	; 0x922 <vfdSendCmd>
     b28:	20 91 2f 01 	lds	r18, 0x012F
     b2c:	30 91 30 01 	lds	r19, 0x0130
     b30:	12 16       	cp	r1, r18
     b32:	13 06       	cpc	r1, r19
     b34:	5c f4       	brge	.+22     	; 0xb4c <vfdShiftRight+0x3e>
     b36:	20 91 2f 01 	lds	r18, 0x012F
     b3a:	30 91 30 01 	lds	r19, 0x0130
     b3e:	21 50       	subi	r18, 0x01	; 1
     b40:	31 09       	sbc	r19, r1
     b42:	30 93 30 01 	sts	0x0130, r19
     b46:	20 93 2f 01 	sts	0x012F, r18
     b4a:	04 c0       	rjmp	.+8      	; 0xb54 <vfdShiftRight+0x46>
     b4c:	d0 93 30 01 	sts	0x0130, r29
     b50:	c0 93 2f 01 	sts	0x012F, r28
     b54:	1f 5f       	subi	r17, 0xFF	; 255
     b56:	e3 cf       	rjmp	.-58     	; 0xb1e <vfdShiftRight+0x10>
     b58:	df 91       	pop	r29
     b5a:	cf 91       	pop	r28
     b5c:	1f 91       	pop	r17
     b5e:	0f 91       	pop	r16
     b60:	08 95       	ret

00000b62 <vfdFlipPageLeft>:
     b62:	82 95       	swap	r24
     b64:	8f 70       	andi	r24, 0x0F	; 15
     b66:	80 93 2e 01 	sts	0x012E, r24
     b6a:	10 92 2d 01 	sts	0x012D, r1
     b6e:	80 91 2d 01 	lds	r24, 0x012D
     b72:	80 31       	cpi	r24, 0x10	; 16
     b74:	a0 f4       	brcc	.+40     	; 0xb9e <vfdFlipPageLeft+0x3c>
     b76:	81 e0       	ldi	r24, 0x01	; 1
     b78:	0e 94 87 05 	call	0xb0e	; 0xb0e <vfdShiftRight>
     b7c:	80 91 2e 01 	lds	r24, 0x012E
     b80:	88 23       	and	r24, r24
     b82:	39 f0       	breq	.+14     	; 0xb92 <vfdFlipPageLeft+0x30>
     b84:	e6 e6       	ldi	r30, 0x66	; 102
     b86:	fe e0       	ldi	r31, 0x0E	; 14
     b88:	31 97       	sbiw	r30, 0x01	; 1
     b8a:	f1 f7       	brne	.-4      	; 0xb88 <vfdFlipPageLeft+0x26>
     b8c:	00 00       	nop
     b8e:	81 50       	subi	r24, 0x01	; 1
     b90:	f7 cf       	rjmp	.-18     	; 0xb80 <vfdFlipPageLeft+0x1e>
     b92:	80 91 2d 01 	lds	r24, 0x012D
     b96:	8f 5f       	subi	r24, 0xFF	; 255
     b98:	80 93 2d 01 	sts	0x012D, r24
     b9c:	e8 cf       	rjmp	.-48     	; 0xb6e <vfdFlipPageLeft+0xc>
     b9e:	08 95       	ret

00000ba0 <vfdFlipPageRight>:
     ba0:	82 95       	swap	r24
     ba2:	8f 70       	andi	r24, 0x0F	; 15
     ba4:	80 93 2c 01 	sts	0x012C, r24
     ba8:	10 92 2b 01 	sts	0x012B, r1
     bac:	80 91 2b 01 	lds	r24, 0x012B
     bb0:	80 31       	cpi	r24, 0x10	; 16
     bb2:	a0 f4       	brcc	.+40     	; 0xbdc <vfdFlipPageRight+0x3c>
     bb4:	81 e0       	ldi	r24, 0x01	; 1
     bb6:	0e 94 63 05 	call	0xac6	; 0xac6 <vfdShiftLeft>
     bba:	80 91 2c 01 	lds	r24, 0x012C
     bbe:	88 23       	and	r24, r24
     bc0:	39 f0       	breq	.+14     	; 0xbd0 <vfdFlipPageRight+0x30>
     bc2:	e6 e6       	ldi	r30, 0x66	; 102
     bc4:	fe e0       	ldi	r31, 0x0E	; 14
     bc6:	31 97       	sbiw	r30, 0x01	; 1
     bc8:	f1 f7       	brne	.-4      	; 0xbc6 <vfdFlipPageRight+0x26>
     bca:	00 00       	nop
     bcc:	81 50       	subi	r24, 0x01	; 1
     bce:	f7 cf       	rjmp	.-18     	; 0xbbe <vfdFlipPageRight+0x1e>
     bd0:	80 91 2b 01 	lds	r24, 0x012B
     bd4:	8f 5f       	subi	r24, 0xFF	; 255
     bd6:	80 93 2b 01 	sts	0x012B, r24
     bda:	e8 cf       	rjmp	.-48     	; 0xbac <vfdFlipPageRight+0xc>
     bdc:	08 95       	ret

00000bde <vfdSetBright>:
     bde:	08 95       	ret

00000be0 <vfdClr>:
     be0:	81 e0       	ldi	r24, 0x01	; 1
     be2:	0e 94 91 04 	call	0x922	; 0x922 <vfdSendCmd>
     be6:	10 92 30 01 	sts	0x0130, r1
     bea:	10 92 2f 01 	sts	0x012F, r1
     bee:	08 95       	ret

00000bf0 <vfdInit>:
     bf0:	80 e1       	ldi	r24, 0x10	; 16
     bf2:	80 93 31 01 	sts	0x0131, r24
     bf6:	84 e0       	ldi	r24, 0x04	; 4
     bf8:	80 93 32 01 	sts	0x0132, r24
     bfc:	0d 9a       	sbi	0x01, 5	; 1
     bfe:	0f 9a       	sbi	0x01, 7	; 1
     c00:	0e 9a       	sbi	0x01, 6	; 1
     c02:	8f ef       	ldi	r24, 0xFF	; 255
     c04:	87 b9       	out	0x07, r24	; 7
     c06:	17 9a       	sbi	0x02, 7	; 2
     c08:	86 e6       	ldi	r24, 0x66	; 102
     c0a:	9e e0       	ldi	r25, 0x0E	; 14
     c0c:	01 97       	sbiw	r24, 0x01	; 1
     c0e:	f1 f7       	brne	.-4      	; 0xc0c <vfdInit+0x1c>
     c10:	00 00       	nop
     c12:	17 98       	cbi	0x02, 7	; 2
     c14:	8f ef       	ldi	r24, 0xFF	; 255
     c16:	9f e8       	ldi	r25, 0x8F	; 143
     c18:	01 97       	sbiw	r24, 0x01	; 1
     c1a:	f1 f7       	brne	.-4      	; 0xc18 <vfdInit+0x28>
     c1c:	00 c0       	rjmp	.+0      	; 0xc1e <vfdInit+0x2e>
     c1e:	00 00       	nop
     c20:	17 9a       	sbi	0x02, 7	; 2
     c22:	86 e6       	ldi	r24, 0x66	; 102
     c24:	9e e0       	ldi	r25, 0x0E	; 14
     c26:	01 97       	sbiw	r24, 0x01	; 1
     c28:	f1 f7       	brne	.-4      	; 0xc26 <vfdInit+0x36>
     c2a:	00 00       	nop
     c2c:	17 98       	cbi	0x02, 7	; 2
     c2e:	8c ec       	ldi	r24, 0xCC	; 204
     c30:	9c e1       	ldi	r25, 0x1C	; 28
     c32:	01 97       	sbiw	r24, 0x01	; 1
     c34:	f1 f7       	brne	.-4      	; 0xc32 <vfdInit+0x42>
     c36:	00 c0       	rjmp	.+0      	; 0xc38 <vfdInit+0x48>
     c38:	00 00       	nop
     c3a:	17 9a       	sbi	0x02, 7	; 2
     c3c:	86 e6       	ldi	r24, 0x66	; 102
     c3e:	9e e0       	ldi	r25, 0x0E	; 14
     c40:	01 97       	sbiw	r24, 0x01	; 1
     c42:	f1 f7       	brne	.-4      	; 0xc40 <vfdInit+0x50>
     c44:	00 00       	nop
     c46:	17 98       	cbi	0x02, 7	; 2
     c48:	8c ec       	ldi	r24, 0xCC	; 204
     c4a:	9c e1       	ldi	r25, 0x1C	; 28
     c4c:	01 97       	sbiw	r24, 0x01	; 1
     c4e:	f1 f7       	brne	.-4      	; 0xc4c <vfdInit+0x5c>
     c50:	00 c0       	rjmp	.+0      	; 0xc52 <vfdInit+0x62>
     c52:	00 00       	nop
     c54:	88 e3       	ldi	r24, 0x38	; 56
     c56:	0e 94 91 04 	call	0x922	; 0x922 <vfdSendCmd>
     c5a:	86 e0       	ldi	r24, 0x06	; 6
     c5c:	0e 94 91 04 	call	0x922	; 0x922 <vfdSendCmd>
     c60:	80 91 32 01 	lds	r24, 0x0132
     c64:	88 60       	ori	r24, 0x08	; 8
     c66:	0e 94 91 04 	call	0x922	; 0x922 <vfdSendCmd>
     c6a:	80 e0       	ldi	r24, 0x00	; 0
     c6c:	0e 94 aa 04 	call	0x954	; 0x954 <vfdSendData>
     c70:	0c 94 f0 05 	jmp	0xbe0	; 0xbe0 <vfdClr>

00000c74 <LoadSettings>:
     c74:	8f e0       	ldi	r24, 0x0F	; 15
     c76:	90 e0       	ldi	r25, 0x00	; 0
     c78:	0e 94 05 17 	call	0x2e0a	; 0x2e0a <__eerd_word_m644>
     c7c:	8f 3f       	cpi	r24, 0xFF	; 255
     c7e:	2f ef       	ldi	r18, 0xFF	; 255
     c80:	92 07       	cpc	r25, r18
     c82:	11 f4       	brne	.+4      	; 0xc88 <LoadSettings+0x14>
     c84:	8c ea       	ldi	r24, 0xAC	; 172
     c86:	9d e0       	ldi	r25, 0x0D	; 13
     c88:	90 93 60 03 	sts	0x0360, r25
     c8c:	80 93 5f 03 	sts	0x035F, r24
     c90:	8d e0       	ldi	r24, 0x0D	; 13
     c92:	90 e0       	ldi	r25, 0x00	; 0
     c94:	0e 94 05 17 	call	0x2e0a	; 0x2e0a <__eerd_word_m644>
     c98:	8f 3f       	cpi	r24, 0xFF	; 255
     c9a:	2f ef       	ldi	r18, 0xFF	; 255
     c9c:	92 07       	cpc	r25, r18
     c9e:	11 f4       	brne	.+4      	; 0xca4 <LoadSettings+0x30>
     ca0:	8a ef       	ldi	r24, 0xFA	; 250
     ca2:	90 e0       	ldi	r25, 0x00	; 0
     ca4:	90 93 62 03 	sts	0x0362, r25
     ca8:	80 93 61 03 	sts	0x0361, r24
     cac:	8b e0       	ldi	r24, 0x0B	; 11
     cae:	90 e0       	ldi	r25, 0x00	; 0
     cb0:	0e 94 05 17 	call	0x2e0a	; 0x2e0a <__eerd_word_m644>
     cb4:	8f 3f       	cpi	r24, 0xFF	; 255
     cb6:	2f ef       	ldi	r18, 0xFF	; 255
     cb8:	92 07       	cpc	r25, r18
     cba:	11 f4       	brne	.+4      	; 0xcc0 <LoadSettings+0x4c>
     cbc:	8c e2       	ldi	r24, 0x2C	; 44
     cbe:	91 e0       	ldi	r25, 0x01	; 1
     cc0:	90 93 64 03 	sts	0x0364, r25
     cc4:	80 93 63 03 	sts	0x0363, r24
     cc8:	89 e0       	ldi	r24, 0x09	; 9
     cca:	90 e0       	ldi	r25, 0x00	; 0
     ccc:	0e 94 05 17 	call	0x2e0a	; 0x2e0a <__eerd_word_m644>
     cd0:	8f 3f       	cpi	r24, 0xFF	; 255
     cd2:	2f ef       	ldi	r18, 0xFF	; 255
     cd4:	92 07       	cpc	r25, r18
     cd6:	11 f4       	brne	.+4      	; 0xcdc <LoadSettings+0x68>
     cd8:	84 e6       	ldi	r24, 0x64	; 100
     cda:	90 e0       	ldi	r25, 0x00	; 0
     cdc:	90 93 66 03 	sts	0x0366, r25
     ce0:	80 93 65 03 	sts	0x0365, r24
     ce4:	87 e0       	ldi	r24, 0x07	; 7
     ce6:	90 e0       	ldi	r25, 0x00	; 0
     ce8:	0e 94 05 17 	call	0x2e0a	; 0x2e0a <__eerd_word_m644>
     cec:	8f 3f       	cpi	r24, 0xFF	; 255
     cee:	2f ef       	ldi	r18, 0xFF	; 255
     cf0:	92 07       	cpc	r25, r18
     cf2:	11 f4       	brne	.+4      	; 0xcf8 <LoadSettings+0x84>
     cf4:	88 ee       	ldi	r24, 0xE8	; 232
     cf6:	93 e0       	ldi	r25, 0x03	; 3
     cf8:	90 93 68 03 	sts	0x0368, r25
     cfc:	80 93 67 03 	sts	0x0367, r24
     d00:	85 e0       	ldi	r24, 0x05	; 5
     d02:	90 e0       	ldi	r25, 0x00	; 0
     d04:	0e 94 05 17 	call	0x2e0a	; 0x2e0a <__eerd_word_m644>
     d08:	8f 3f       	cpi	r24, 0xFF	; 255
     d0a:	2f ef       	ldi	r18, 0xFF	; 255
     d0c:	92 07       	cpc	r25, r18
     d0e:	19 f0       	breq	.+6      	; 0xd16 <LoadSettings+0xa2>
     d10:	80 93 69 03 	sts	0x0369, r24
     d14:	02 c0       	rjmp	.+4      	; 0xd1a <LoadSettings+0xa6>
     d16:	10 92 69 03 	sts	0x0369, r1
     d1a:	83 e0       	ldi	r24, 0x03	; 3
     d1c:	90 e0       	ldi	r25, 0x00	; 0
     d1e:	0e 94 05 17 	call	0x2e0a	; 0x2e0a <__eerd_word_m644>
     d22:	8f 3f       	cpi	r24, 0xFF	; 255
     d24:	2f ef       	ldi	r18, 0xFF	; 255
     d26:	92 07       	cpc	r25, r18
     d28:	89 f0       	breq	.+34     	; 0xd4c <LoadSettings+0xd8>
     d2a:	80 93 6a 03 	sts	0x036A, r24
     d2e:	81 11       	cpse	r24, r1
     d30:	0f c0       	rjmp	.+30     	; 0xd50 <LoadSettings+0xdc>
     d32:	80 91 69 03 	lds	r24, 0x0369
     d36:	88 23       	and	r24, r24
     d38:	59 f0       	breq	.+22     	; 0xd50 <LoadSettings+0xdc>
     d3a:	10 92 69 03 	sts	0x0369, r1
     d3e:	60 e0       	ldi	r22, 0x00	; 0
     d40:	70 e0       	ldi	r23, 0x00	; 0
     d42:	85 e0       	ldi	r24, 0x05	; 5
     d44:	90 e0       	ldi	r25, 0x00	; 0
     d46:	0e 94 1d 17 	call	0x2e3a	; 0x2e3a <__eeupd_word_m644>
     d4a:	02 c0       	rjmp	.+4      	; 0xd50 <LoadSettings+0xdc>
     d4c:	10 92 6a 03 	sts	0x036A, r1
     d50:	81 e0       	ldi	r24, 0x01	; 1
     d52:	90 e0       	ldi	r25, 0x00	; 0
     d54:	0e 94 05 17 	call	0x2e0a	; 0x2e0a <__eerd_word_m644>
     d58:	8f 3f       	cpi	r24, 0xFF	; 255
     d5a:	2f ef       	ldi	r18, 0xFF	; 255
     d5c:	92 07       	cpc	r25, r18
     d5e:	11 f4       	brne	.+4      	; 0xd64 <LoadSettings+0xf0>
     d60:	88 e8       	ldi	r24, 0x88	; 136
     d62:	93 e1       	ldi	r25, 0x13	; 19
     d64:	90 93 34 01 	sts	0x0134, r25
     d68:	80 93 33 01 	sts	0x0133, r24
     d6c:	80 e0       	ldi	r24, 0x00	; 0
     d6e:	90 e0       	ldi	r25, 0x00	; 0
     d70:	0e 94 fd 16 	call	0x2dfa	; 0x2dfa <__eerd_byte_m644>
     d74:	80 93 5e 03 	sts	0x035E, r24
     d78:	08 95       	ret

00000d7a <InitializeHardware>:
     d7a:	84 b1       	in	r24, 0x04	; 4
     d7c:	80 6b       	ori	r24, 0xB0	; 176
     d7e:	84 b9       	out	0x04, r24	; 4
     d80:	26 98       	cbi	0x04, 6	; 4
     d82:	2e 9a       	sbi	0x05, 6	; 5
     d84:	8c e5       	ldi	r24, 0x5C	; 92
     d86:	8c bd       	out	0x2c, r24	; 44
     d88:	8d b5       	in	r24, 0x2d	; 45
     d8a:	81 60       	ori	r24, 0x01	; 1
     d8c:	8d bd       	out	0x2d, r24	; 45
     d8e:	0e 94 9e 02 	call	0x53c	; 0x53c <InitializeTimers>
     d92:	0e 94 3f 0f 	call	0x1e7e	; 0x1e7e <UI_Init>
     d96:	0e 94 f8 05 	call	0xbf0	; 0xbf0 <vfdInit>
     d9a:	81 b1       	in	r24, 0x01	; 1
     d9c:	87 7e       	andi	r24, 0xE7	; 231
     d9e:	81 b9       	out	0x01, r24	; 1
     da0:	82 b1       	in	r24, 0x02	; 2
     da2:	88 61       	ori	r24, 0x18	; 24
     da4:	82 b9       	out	0x02, r24	; 2
     da6:	84 b1       	in	r24, 0x04	; 4
     da8:	8c 7f       	andi	r24, 0xFC	; 252
     daa:	84 b9       	out	0x04, r24	; 4
     dac:	85 b1       	in	r24, 0x05	; 5
     dae:	83 60       	ori	r24, 0x03	; 3
     db0:	85 b9       	out	0x05, r24	; 5
     db2:	52 98       	cbi	0x0a, 2	; 10
     db4:	5a 9a       	sbi	0x0b, 2	; 11
     db6:	53 98       	cbi	0x0a, 3	; 10
     db8:	5b 9a       	sbi	0x0b, 3	; 11
     dba:	22 98       	cbi	0x04, 2	; 4
     dbc:	2a 9a       	sbi	0x05, 2	; 5
     dbe:	5f 98       	cbi	0x0b, 7	; 11
     dc0:	57 9a       	sbi	0x0a, 7	; 10
     dc2:	5e 98       	cbi	0x0b, 6	; 11
     dc4:	56 9a       	sbi	0x0a, 6	; 10
     dc6:	5c 98       	cbi	0x0b, 4	; 11
     dc8:	54 9a       	sbi	0x0a, 4	; 10
     dca:	80 91 7e 00 	lds	r24, 0x007E
     dce:	83 60       	ori	r24, 0x03	; 3
     dd0:	80 93 7e 00 	sts	0x007E, r24
     dd4:	0e 94 c1 02 	call	0x582	; 0x582 <StartSystemTimer>
     dd8:	0e 94 3a 06 	call	0xc74	; 0xc74 <LoadSettings>
     ddc:	2c 9a       	sbi	0x05, 4	; 5
     dde:	24 9a       	sbi	0x04, 4	; 4
     de0:	85 b1       	in	r24, 0x05	; 5
     de2:	85 b9       	out	0x05, r24	; 5
     de4:	84 b1       	in	r24, 0x04	; 4
     de6:	84 b9       	out	0x04, r24	; 4
     de8:	2c 98       	cbi	0x05, 4	; 5
     dea:	80 e1       	ldi	r24, 0x10	; 16
     dec:	8e bd       	out	0x2e, r24	; 46
     dee:	0d b4       	in	r0, 0x2d	; 45
     df0:	07 fe       	sbrs	r0, 7
     df2:	fd cf       	rjmp	.-6      	; 0xdee <InitializeHardware+0x74>
     df4:	1e bc       	out	0x2e, r1	; 46
     df6:	0d b4       	in	r0, 0x2d	; 45
     df8:	07 fe       	sbrs	r0, 7
     dfa:	fd cf       	rjmp	.-6      	; 0xdf6 <InitializeHardware+0x7c>
     dfc:	2c 9a       	sbi	0x05, 4	; 5
     dfe:	0e 94 eb 08 	call	0x11d6	; 0x11d6 <uiHelper_LoadMenus>
     e02:	0e 94 d6 13 	call	0x27ac	; 0x27ac <WELD_Init>
     e06:	64 e6       	ldi	r22, 0x64	; 100
     e08:	70 e0       	ldi	r23, 0x00	; 0
     e0a:	80 e0       	ldi	r24, 0x00	; 0
     e0c:	90 e0       	ldi	r25, 0x00	; 0
     e0e:	0e 94 d0 02 	call	0x5a0	; 0x5a0 <Beep>
     e12:	78 94       	sei
     e14:	08 95       	ret

00000e16 <main>:
     e16:	0e 94 bd 06 	call	0xd7a	; 0xd7a <InitializeHardware>
     e1a:	0e 94 42 11 	call	0x2284	; 0x2284 <UI_Service>
     e1e:	2f ef       	ldi	r18, 0xFF	; 255
     e20:	8f ef       	ldi	r24, 0xFF	; 255
     e22:	96 e8       	ldi	r25, 0x86	; 134
     e24:	21 50       	subi	r18, 0x01	; 1
     e26:	80 40       	sbci	r24, 0x00	; 0
     e28:	90 40       	sbci	r25, 0x00	; 0
     e2a:	e1 f7       	brne	.-8      	; 0xe24 <main+0xe>
     e2c:	00 c0       	rjmp	.+0      	; 0xe2e <main+0x18>
     e2e:	00 00       	nop
     e30:	81 e0       	ldi	r24, 0x01	; 1
     e32:	0e 94 d2 0e 	call	0x1da4	; 0x1da4 <uiObj_Activate>
     e36:	0e 94 f0 05 	call	0xbe0	; 0xbe0 <vfdClr>
     e3a:	0e 94 42 11 	call	0x2284	; 0x2284 <UI_Service>
     e3e:	0e 94 64 14 	call	0x28c8	; 0x28c8 <WELD_Service>
     e42:	fb cf       	rjmp	.-10     	; 0xe3a <main+0x24>

00000e44 <uiAct_ShowTrigType>:
     e44:	0f 93       	push	r16
     e46:	0e 94 f0 05 	call	0xbe0	; 0xbe0 <vfdClr>
     e4a:	80 91 69 03 	lds	r24, 0x0369
     e4e:	02 e0       	ldi	r16, 0x02	; 2
     e50:	20 e0       	ldi	r18, 0x00	; 0
     e52:	40 e0       	ldi	r20, 0x00	; 0
     e54:	60 e1       	ldi	r22, 0x10	; 16
     e56:	81 30       	cpi	r24, 0x01	; 1
     e58:	19 f4       	brne	.+6      	; 0xe60 <uiAct_ShowTrigType+0x1c>
     e5a:	89 e5       	ldi	r24, 0x59	; 89
     e5c:	91 e0       	ldi	r25, 0x01	; 1
     e5e:	02 c0       	rjmp	.+4      	; 0xe64 <uiAct_ShowTrigType+0x20>
     e60:	88 e4       	ldi	r24, 0x48	; 72
     e62:	91 e0       	ldi	r25, 0x01	; 1
     e64:	0e 94 05 05 	call	0xa0a	; 0xa0a <vfdPrintStrXY>
     e68:	2f ef       	ldi	r18, 0xFF	; 255
     e6a:	8f ef       	ldi	r24, 0xFF	; 255
     e6c:	99 e5       	ldi	r25, 0x59	; 89
     e6e:	21 50       	subi	r18, 0x01	; 1
     e70:	80 40       	sbci	r24, 0x00	; 0
     e72:	90 40       	sbci	r25, 0x00	; 0
     e74:	e1 f7       	brne	.-8      	; 0xe6e <uiAct_ShowTrigType+0x2a>
     e76:	00 c0       	rjmp	.+0      	; 0xe78 <uiAct_ShowTrigType+0x34>
     e78:	00 00       	nop
     e7a:	0e 94 f0 05 	call	0xbe0	; 0xbe0 <vfdClr>
     e7e:	80 e0       	ldi	r24, 0x00	; 0
     e80:	90 e0       	ldi	r25, 0x00	; 0
     e82:	0f 91       	pop	r16
     e84:	08 95       	ret

00000e86 <uiAct_ShowWeldType>:
     e86:	0f 93       	push	r16
     e88:	0e 94 f0 05 	call	0xbe0	; 0xbe0 <vfdClr>
     e8c:	80 91 6a 03 	lds	r24, 0x036A
     e90:	81 11       	cpse	r24, r1
     e92:	08 c0       	rjmp	.+16     	; 0xea4 <uiAct_ShowWeldType+0x1e>
     e94:	02 e0       	ldi	r16, 0x02	; 2
     e96:	20 e0       	ldi	r18, 0x00	; 0
     e98:	40 e0       	ldi	r20, 0x00	; 0
     e9a:	60 e1       	ldi	r22, 0x10	; 16
     e9c:	88 ec       	ldi	r24, 0xC8	; 200
     e9e:	90 e0       	ldi	r25, 0x00	; 0
     ea0:	0e 94 05 05 	call	0xa0a	; 0xa0a <vfdPrintStrXY>
     ea4:	80 91 6a 03 	lds	r24, 0x036A
     ea8:	82 30       	cpi	r24, 0x02	; 2
     eaa:	41 f4       	brne	.+16     	; 0xebc <uiAct_ShowWeldType+0x36>
     eac:	02 e0       	ldi	r16, 0x02	; 2
     eae:	20 e0       	ldi	r18, 0x00	; 0
     eb0:	40 e0       	ldi	r20, 0x00	; 0
     eb2:	60 e1       	ldi	r22, 0x10	; 16
     eb4:	87 eb       	ldi	r24, 0xB7	; 183
     eb6:	90 e0       	ldi	r25, 0x00	; 0
     eb8:	0e 94 05 05 	call	0xa0a	; 0xa0a <vfdPrintStrXY>
     ebc:	80 91 6a 03 	lds	r24, 0x036A
     ec0:	81 30       	cpi	r24, 0x01	; 1
     ec2:	41 f4       	brne	.+16     	; 0xed4 <uiAct_ShowWeldType+0x4e>
     ec4:	02 e0       	ldi	r16, 0x02	; 2
     ec6:	20 e0       	ldi	r18, 0x00	; 0
     ec8:	40 e0       	ldi	r20, 0x00	; 0
     eca:	60 e1       	ldi	r22, 0x10	; 16
     ecc:	86 ea       	ldi	r24, 0xA6	; 166
     ece:	90 e0       	ldi	r25, 0x00	; 0
     ed0:	0e 94 05 05 	call	0xa0a	; 0xa0a <vfdPrintStrXY>
     ed4:	2f ef       	ldi	r18, 0xFF	; 255
     ed6:	8f ef       	ldi	r24, 0xFF	; 255
     ed8:	99 e5       	ldi	r25, 0x59	; 89
     eda:	21 50       	subi	r18, 0x01	; 1
     edc:	80 40       	sbci	r24, 0x00	; 0
     ede:	90 40       	sbci	r25, 0x00	; 0
     ee0:	e1 f7       	brne	.-8      	; 0xeda <uiAct_ShowWeldType+0x54>
     ee2:	00 c0       	rjmp	.+0      	; 0xee4 <uiAct_ShowWeldType+0x5e>
     ee4:	00 00       	nop
     ee6:	0e 94 f0 05 	call	0xbe0	; 0xbe0 <vfdClr>
     eea:	80 e0       	ldi	r24, 0x00	; 0
     eec:	90 e0       	ldi	r25, 0x00	; 0
     eee:	0f 91       	pop	r16
     ef0:	08 95       	ret

00000ef2 <uiAct_SetTrigType>:
     ef2:	0f 93       	push	r16
     ef4:	cf 93       	push	r28
     ef6:	df 93       	push	r29
     ef8:	87 e7       	ldi	r24, 0x77	; 119
     efa:	91 e0       	ldi	r25, 0x01	; 1
     efc:	0e 94 6b 10 	call	0x20d6	; 0x20d6 <UI_ResetInputState>
     f00:	80 91 69 03 	lds	r24, 0x0369
     f04:	81 30       	cpi	r24, 0x01	; 1
     f06:	19 f4       	brne	.+6      	; 0xf0e <uiAct_SetTrigType+0x1c>
     f08:	c1 e0       	ldi	r28, 0x01	; 1
     f0a:	d0 e0       	ldi	r29, 0x00	; 0
     f0c:	02 c0       	rjmp	.+4      	; 0xf12 <uiAct_SetTrigType+0x20>
     f0e:	c0 e0       	ldi	r28, 0x00	; 0
     f10:	d1 e0       	ldi	r29, 0x01	; 1
     f12:	87 e7       	ldi	r24, 0x77	; 119
     f14:	91 e0       	ldi	r25, 0x01	; 1
     f16:	0e 94 b9 0f 	call	0x1f72	; 0x1f72 <UI_ProcessInput>
     f1a:	dc 17       	cp	r29, r28
     f1c:	b1 f0       	breq	.+44     	; 0xf4a <uiAct_SetTrigType+0x58>
     f1e:	02 e0       	ldi	r16, 0x02	; 2
     f20:	20 e0       	ldi	r18, 0x00	; 0
     f22:	40 e0       	ldi	r20, 0x00	; 0
     f24:	60 e1       	ldi	r22, 0x10	; 16
     f26:	c1 30       	cpi	r28, 0x01	; 1
     f28:	19 f4       	brne	.+6      	; 0xf30 <uiAct_SetTrigType+0x3e>
     f2a:	8b eb       	ldi	r24, 0xBB	; 187
     f2c:	91 e0       	ldi	r25, 0x01	; 1
     f2e:	02 c0       	rjmp	.+4      	; 0xf34 <uiAct_SetTrigType+0x42>
     f30:	8a ea       	ldi	r24, 0xAA	; 170
     f32:	91 e0       	ldi	r25, 0x01	; 1
     f34:	0e 94 05 05 	call	0xa0a	; 0xa0a <vfdPrintStrXY>
     f38:	02 e0       	ldi	r16, 0x02	; 2
     f3a:	21 e0       	ldi	r18, 0x01	; 1
     f3c:	40 e0       	ldi	r20, 0x00	; 0
     f3e:	60 e1       	ldi	r22, 0x10	; 16
     f40:	89 e9       	ldi	r24, 0x99	; 153
     f42:	91 e0       	ldi	r25, 0x01	; 1
     f44:	0e 94 05 05 	call	0xa0a	; 0xa0a <vfdPrintStrXY>
     f48:	dc 2f       	mov	r29, r28
     f4a:	80 91 81 01 	lds	r24, 0x0181
     f4e:	81 30       	cpi	r24, 0x01	; 1
     f50:	51 f4       	brne	.+20     	; 0xf66 <uiAct_SetTrigType+0x74>
     f52:	90 91 83 01 	lds	r25, 0x0183
     f56:	99 23       	and	r25, r25
     f58:	11 f0       	breq	.+4      	; 0xf5e <uiAct_SetTrigType+0x6c>
     f5a:	c8 27       	eor	r28, r24
     f5c:	c1 70       	andi	r28, 0x01	; 1
     f5e:	87 e7       	ldi	r24, 0x77	; 119
     f60:	91 e0       	ldi	r25, 0x01	; 1
     f62:	0e 94 6b 10 	call	0x20d6	; 0x20d6 <UI_ResetInputState>
     f66:	80 91 77 01 	lds	r24, 0x0177
     f6a:	81 30       	cpi	r24, 0x01	; 1
     f6c:	91 f6       	brne	.-92     	; 0xf12 <uiAct_SetTrigType+0x20>
     f6e:	80 91 78 01 	lds	r24, 0x0178
     f72:	81 50       	subi	r24, 0x01	; 1
     f74:	82 30       	cpi	r24, 0x02	; 2
     f76:	f8 f4       	brcc	.+62     	; 0xfb6 <uiAct_SetTrigType+0xc4>
     f78:	d1 30       	cpi	r29, 0x01	; 1
     f7a:	11 f5       	brne	.+68     	; 0xfc0 <uiAct_SetTrigType+0xce>
     f7c:	80 91 6a 03 	lds	r24, 0x036A
     f80:	81 11       	cpse	r24, r1
     f82:	1e c0       	rjmp	.+60     	; 0xfc0 <uiAct_SetTrigType+0xce>
     f84:	0e 94 f0 05 	call	0xbe0	; 0xbe0 <vfdClr>
     f88:	02 e0       	ldi	r16, 0x02	; 2
     f8a:	20 e0       	ldi	r18, 0x00	; 0
     f8c:	42 e0       	ldi	r20, 0x02	; 2
     f8e:	6c e0       	ldi	r22, 0x0C	; 12
     f90:	8c e8       	ldi	r24, 0x8C	; 140
     f92:	91 e0       	ldi	r25, 0x01	; 1
     f94:	0e 94 05 05 	call	0xa0a	; 0xa0a <vfdPrintStrXY>
     f98:	21 e0       	ldi	r18, 0x01	; 1
     f9a:	40 e0       	ldi	r20, 0x00	; 0
     f9c:	60 e1       	ldi	r22, 0x10	; 16
     f9e:	8b e7       	ldi	r24, 0x7B	; 123
     fa0:	91 e0       	ldi	r25, 0x01	; 1
     fa2:	0e 94 05 05 	call	0xa0a	; 0xa0a <vfdPrintStrXY>
     fa6:	2f ef       	ldi	r18, 0xFF	; 255
     fa8:	8f ef       	ldi	r24, 0xFF	; 255
     faa:	99 e5       	ldi	r25, 0x59	; 89
     fac:	21 50       	subi	r18, 0x01	; 1
     fae:	80 40       	sbci	r24, 0x00	; 0
     fb0:	90 40       	sbci	r25, 0x00	; 0
     fb2:	e1 f7       	brne	.-8      	; 0xfac <uiAct_SetTrigType+0xba>
     fb4:	1e c0       	rjmp	.+60     	; 0xff2 <uiAct_SetTrigType+0x100>
     fb6:	87 e7       	ldi	r24, 0x77	; 119
     fb8:	91 e0       	ldi	r25, 0x01	; 1
     fba:	0e 94 6b 10 	call	0x20d6	; 0x20d6 <UI_ResetInputState>
     fbe:	a9 cf       	rjmp	.-174    	; 0xf12 <uiAct_SetTrigType+0x20>
     fc0:	d0 93 69 03 	sts	0x0369, r29
     fc4:	6d 2f       	mov	r22, r29
     fc6:	70 e0       	ldi	r23, 0x00	; 0
     fc8:	85 e0       	ldi	r24, 0x05	; 5
     fca:	90 e0       	ldi	r25, 0x00	; 0
     fcc:	0e 94 1d 17 	call	0x2e3a	; 0x2e3a <__eeupd_word_m644>
     fd0:	0e 94 f0 05 	call	0xbe0	; 0xbe0 <vfdClr>
     fd4:	02 e0       	ldi	r16, 0x02	; 2
     fd6:	20 e0       	ldi	r18, 0x00	; 0
     fd8:	40 e0       	ldi	r20, 0x00	; 0
     fda:	60 e1       	ldi	r22, 0x10	; 16
     fdc:	8a e6       	ldi	r24, 0x6A	; 106
     fde:	91 e0       	ldi	r25, 0x01	; 1
     fe0:	0e 94 05 05 	call	0xa0a	; 0xa0a <vfdPrintStrXY>
     fe4:	2f ef       	ldi	r18, 0xFF	; 255
     fe6:	8f e7       	ldi	r24, 0x7F	; 127
     fe8:	96 e1       	ldi	r25, 0x16	; 22
     fea:	21 50       	subi	r18, 0x01	; 1
     fec:	80 40       	sbci	r24, 0x00	; 0
     fee:	90 40       	sbci	r25, 0x00	; 0
     ff0:	e1 f7       	brne	.-8      	; 0xfea <uiAct_SetTrigType+0xf8>
     ff2:	00 c0       	rjmp	.+0      	; 0xff4 <uiAct_SetTrigType+0x102>
     ff4:	00 00       	nop
     ff6:	0e 94 f0 05 	call	0xbe0	; 0xbe0 <vfdClr>
     ffa:	80 e0       	ldi	r24, 0x00	; 0
     ffc:	90 e0       	ldi	r25, 0x00	; 0
     ffe:	df 91       	pop	r29
    1000:	cf 91       	pop	r28
    1002:	0f 91       	pop	r16
    1004:	08 95       	ret

00001006 <uiAct_RestoreDefaults>:
    1006:	0f 93       	push	r16
    1008:	87 e7       	ldi	r24, 0x77	; 119
    100a:	91 e0       	ldi	r25, 0x01	; 1
    100c:	0e 94 6b 10 	call	0x20d6	; 0x20d6 <UI_ResetInputState>
    1010:	8a ef       	ldi	r24, 0xFA	; 250
    1012:	90 e0       	ldi	r25, 0x00	; 0
    1014:	90 93 62 03 	sts	0x0362, r25
    1018:	80 93 61 03 	sts	0x0361, r24
    101c:	8c e2       	ldi	r24, 0x2C	; 44
    101e:	91 e0       	ldi	r25, 0x01	; 1
    1020:	90 93 64 03 	sts	0x0364, r25
    1024:	80 93 63 03 	sts	0x0363, r24
    1028:	84 e6       	ldi	r24, 0x64	; 100
    102a:	90 e0       	ldi	r25, 0x00	; 0
    102c:	90 93 66 03 	sts	0x0366, r25
    1030:	80 93 65 03 	sts	0x0365, r24
    1034:	88 ee       	ldi	r24, 0xE8	; 232
    1036:	93 e0       	ldi	r25, 0x03	; 3
    1038:	90 93 68 03 	sts	0x0368, r25
    103c:	80 93 67 03 	sts	0x0367, r24
    1040:	10 92 69 03 	sts	0x0369, r1
    1044:	10 92 6a 03 	sts	0x036A, r1
    1048:	0e 94 f0 05 	call	0xbe0	; 0xbe0 <vfdClr>
    104c:	02 e0       	ldi	r16, 0x02	; 2
    104e:	20 e0       	ldi	r18, 0x00	; 0
    1050:	40 e0       	ldi	r20, 0x00	; 0
    1052:	60 e1       	ldi	r22, 0x10	; 16
    1054:	82 e9       	ldi	r24, 0x92	; 146
    1056:	90 e0       	ldi	r25, 0x00	; 0
    1058:	0e 94 05 05 	call	0xa0a	; 0xa0a <vfdPrintStrXY>
    105c:	2f ef       	ldi	r18, 0xFF	; 255
    105e:	8f e7       	ldi	r24, 0x7F	; 127
    1060:	96 e1       	ldi	r25, 0x16	; 22
    1062:	21 50       	subi	r18, 0x01	; 1
    1064:	80 40       	sbci	r24, 0x00	; 0
    1066:	90 40       	sbci	r25, 0x00	; 0
    1068:	e1 f7       	brne	.-8      	; 0x1062 <uiAct_RestoreDefaults+0x5c>
    106a:	00 c0       	rjmp	.+0      	; 0x106c <uiAct_RestoreDefaults+0x66>
    106c:	00 00       	nop
    106e:	0e 94 f0 05 	call	0xbe0	; 0xbe0 <vfdClr>
    1072:	80 e0       	ldi	r24, 0x00	; 0
    1074:	90 e0       	ldi	r25, 0x00	; 0
    1076:	0f 91       	pop	r16
    1078:	08 95       	ret

0000107a <uiAct_SetWeldType>:
    107a:	0f 93       	push	r16
    107c:	cf 93       	push	r28
    107e:	df 93       	push	r29
    1080:	87 e7       	ldi	r24, 0x77	; 119
    1082:	91 e0       	ldi	r25, 0x01	; 1
    1084:	0e 94 6b 10 	call	0x20d6	; 0x20d6 <UI_ResetInputState>
    1088:	80 91 6a 03 	lds	r24, 0x036A
    108c:	82 30       	cpi	r24, 0x02	; 2
    108e:	29 f0       	breq	.+10     	; 0x109a <uiAct_SetWeldType+0x20>
    1090:	81 30       	cpi	r24, 0x01	; 1
    1092:	29 f0       	breq	.+10     	; 0x109e <uiAct_SetWeldType+0x24>
    1094:	c0 e0       	ldi	r28, 0x00	; 0
    1096:	d2 e0       	ldi	r29, 0x02	; 2
    1098:	04 c0       	rjmp	.+8      	; 0x10a2 <uiAct_SetWeldType+0x28>
    109a:	c2 e0       	ldi	r28, 0x02	; 2
    109c:	01 c0       	rjmp	.+2      	; 0x10a0 <uiAct_SetWeldType+0x26>
    109e:	c1 e0       	ldi	r28, 0x01	; 1
    10a0:	d0 e0       	ldi	r29, 0x00	; 0
    10a2:	87 e7       	ldi	r24, 0x77	; 119
    10a4:	91 e0       	ldi	r25, 0x01	; 1
    10a6:	0e 94 b9 0f 	call	0x1f72	; 0x1f72 <UI_ProcessInput>
    10aa:	dc 17       	cp	r29, r28
    10ac:	29 f1       	breq	.+74     	; 0x10f8 <uiAct_SetWeldType+0x7e>
    10ae:	c1 11       	cpse	r28, r1
    10b0:	07 c0       	rjmp	.+14     	; 0x10c0 <uiAct_SetWeldType+0x46>
    10b2:	02 e0       	ldi	r16, 0x02	; 2
    10b4:	20 e0       	ldi	r18, 0x00	; 0
    10b6:	40 e0       	ldi	r20, 0x00	; 0
    10b8:	60 e1       	ldi	r22, 0x10	; 16
    10ba:	87 e3       	ldi	r24, 0x37	; 55
    10bc:	91 e0       	ldi	r25, 0x01	; 1
    10be:	11 c0       	rjmp	.+34     	; 0x10e2 <uiAct_SetWeldType+0x68>
    10c0:	c2 30       	cpi	r28, 0x02	; 2
    10c2:	39 f4       	brne	.+14     	; 0x10d2 <uiAct_SetWeldType+0x58>
    10c4:	02 e0       	ldi	r16, 0x02	; 2
    10c6:	20 e0       	ldi	r18, 0x00	; 0
    10c8:	40 e0       	ldi	r20, 0x00	; 0
    10ca:	60 e1       	ldi	r22, 0x10	; 16
    10cc:	86 e2       	ldi	r24, 0x26	; 38
    10ce:	91 e0       	ldi	r25, 0x01	; 1
    10d0:	08 c0       	rjmp	.+16     	; 0x10e2 <uiAct_SetWeldType+0x68>
    10d2:	c1 30       	cpi	r28, 0x01	; 1
    10d4:	41 f4       	brne	.+16     	; 0x10e6 <uiAct_SetWeldType+0x6c>
    10d6:	02 e0       	ldi	r16, 0x02	; 2
    10d8:	20 e0       	ldi	r18, 0x00	; 0
    10da:	40 e0       	ldi	r20, 0x00	; 0
    10dc:	60 e1       	ldi	r22, 0x10	; 16
    10de:	85 e1       	ldi	r24, 0x15	; 21
    10e0:	91 e0       	ldi	r25, 0x01	; 1
    10e2:	0e 94 05 05 	call	0xa0a	; 0xa0a <vfdPrintStrXY>
    10e6:	02 e0       	ldi	r16, 0x02	; 2
    10e8:	21 e0       	ldi	r18, 0x01	; 1
    10ea:	40 e0       	ldi	r20, 0x00	; 0
    10ec:	60 e1       	ldi	r22, 0x10	; 16
    10ee:	84 e0       	ldi	r24, 0x04	; 4
    10f0:	91 e0       	ldi	r25, 0x01	; 1
    10f2:	0e 94 05 05 	call	0xa0a	; 0xa0a <vfdPrintStrXY>
    10f6:	dc 2f       	mov	r29, r28
    10f8:	80 91 81 01 	lds	r24, 0x0181
    10fc:	81 30       	cpi	r24, 0x01	; 1
    10fe:	89 f4       	brne	.+34     	; 0x1122 <__stack+0x23>
    1100:	80 91 83 01 	lds	r24, 0x0183
    1104:	88 23       	and	r24, r24
    1106:	49 f0       	breq	.+18     	; 0x111a <__stack+0x1b>
    1108:	cc 23       	and	r28, r28
    110a:	21 f0       	breq	.+8      	; 0x1114 <__stack+0x15>
    110c:	c1 30       	cpi	r28, 0x01	; 1
    110e:	21 f4       	brne	.+8      	; 0x1118 <__stack+0x19>
    1110:	c2 e0       	ldi	r28, 0x02	; 2
    1112:	03 c0       	rjmp	.+6      	; 0x111a <__stack+0x1b>
    1114:	c1 e0       	ldi	r28, 0x01	; 1
    1116:	01 c0       	rjmp	.+2      	; 0x111a <__stack+0x1b>
    1118:	c0 e0       	ldi	r28, 0x00	; 0
    111a:	87 e7       	ldi	r24, 0x77	; 119
    111c:	91 e0       	ldi	r25, 0x01	; 1
    111e:	0e 94 6b 10 	call	0x20d6	; 0x20d6 <UI_ResetInputState>
    1122:	80 91 77 01 	lds	r24, 0x0177
    1126:	81 30       	cpi	r24, 0x01	; 1
    1128:	09 f0       	breq	.+2      	; 0x112c <__stack+0x2d>
    112a:	bb cf       	rjmp	.-138    	; 0x10a2 <uiAct_SetWeldType+0x28>
    112c:	80 91 78 01 	lds	r24, 0x0178
    1130:	81 50       	subi	r24, 0x01	; 1
    1132:	82 30       	cpi	r24, 0x02	; 2
    1134:	38 f5       	brcc	.+78     	; 0x1184 <__stack+0x85>
    1136:	d0 93 6a 03 	sts	0x036A, r29
    113a:	d1 11       	cpse	r29, r1
    113c:	28 c0       	rjmp	.+80     	; 0x118e <__stack+0x8f>
    113e:	0e 94 f0 05 	call	0xbe0	; 0xbe0 <vfdClr>
    1142:	02 e0       	ldi	r16, 0x02	; 2
    1144:	20 e0       	ldi	r18, 0x00	; 0
    1146:	40 e0       	ldi	r20, 0x00	; 0
    1148:	60 e1       	ldi	r22, 0x10	; 16
    114a:	83 ef       	ldi	r24, 0xF3	; 243
    114c:	90 e0       	ldi	r25, 0x00	; 0
    114e:	0e 94 05 05 	call	0xa0a	; 0xa0a <vfdPrintStrXY>
    1152:	21 e0       	ldi	r18, 0x01	; 1
    1154:	44 e0       	ldi	r20, 0x04	; 4
    1156:	68 e0       	ldi	r22, 0x08	; 8
    1158:	8a ee       	ldi	r24, 0xEA	; 234
    115a:	90 e0       	ldi	r25, 0x00	; 0
    115c:	0e 94 05 05 	call	0xa0a	; 0xa0a <vfdPrintStrXY>
    1160:	2f ef       	ldi	r18, 0xFF	; 255
    1162:	8f ef       	ldi	r24, 0xFF	; 255
    1164:	99 e5       	ldi	r25, 0x59	; 89
    1166:	21 50       	subi	r18, 0x01	; 1
    1168:	80 40       	sbci	r24, 0x00	; 0
    116a:	90 40       	sbci	r25, 0x00	; 0
    116c:	e1 f7       	brne	.-8      	; 0x1166 <__stack+0x67>
    116e:	00 c0       	rjmp	.+0      	; 0x1170 <__stack+0x71>
    1170:	00 00       	nop
    1172:	10 92 69 03 	sts	0x0369, r1
    1176:	60 e0       	ldi	r22, 0x00	; 0
    1178:	70 e0       	ldi	r23, 0x00	; 0
    117a:	83 e0       	ldi	r24, 0x03	; 3
    117c:	90 e0       	ldi	r25, 0x00	; 0
    117e:	0e 94 1d 17 	call	0x2e3a	; 0x2e3a <__eeupd_word_m644>
    1182:	05 c0       	rjmp	.+10     	; 0x118e <__stack+0x8f>
    1184:	87 e7       	ldi	r24, 0x77	; 119
    1186:	91 e0       	ldi	r25, 0x01	; 1
    1188:	0e 94 6b 10 	call	0x20d6	; 0x20d6 <UI_ResetInputState>
    118c:	8a cf       	rjmp	.-236    	; 0x10a2 <uiAct_SetWeldType+0x28>
    118e:	60 e0       	ldi	r22, 0x00	; 0
    1190:	70 e0       	ldi	r23, 0x00	; 0
    1192:	85 e0       	ldi	r24, 0x05	; 5
    1194:	90 e0       	ldi	r25, 0x00	; 0
    1196:	0e 94 1d 17 	call	0x2e3a	; 0x2e3a <__eeupd_word_m644>
    119a:	0e 94 f0 05 	call	0xbe0	; 0xbe0 <vfdClr>
    119e:	02 e0       	ldi	r16, 0x02	; 2
    11a0:	20 e0       	ldi	r18, 0x00	; 0
    11a2:	40 e0       	ldi	r20, 0x00	; 0
    11a4:	60 e1       	ldi	r22, 0x10	; 16
    11a6:	89 ed       	ldi	r24, 0xD9	; 217
    11a8:	90 e0       	ldi	r25, 0x00	; 0
    11aa:	0e 94 05 05 	call	0xa0a	; 0xa0a <vfdPrintStrXY>
    11ae:	2f ef       	ldi	r18, 0xFF	; 255
    11b0:	8f e7       	ldi	r24, 0x7F	; 127
    11b2:	96 e1       	ldi	r25, 0x16	; 22
    11b4:	21 50       	subi	r18, 0x01	; 1
    11b6:	80 40       	sbci	r24, 0x00	; 0
    11b8:	90 40       	sbci	r25, 0x00	; 0
    11ba:	e1 f7       	brne	.-8      	; 0x11b4 <__stack+0xb5>
    11bc:	00 c0       	rjmp	.+0      	; 0x11be <__stack+0xbf>
    11be:	00 00       	nop
    11c0:	0e 94 f0 05 	call	0xbe0	; 0xbe0 <vfdClr>
    11c4:	80 e0       	ldi	r24, 0x00	; 0
    11c6:	0e 94 4d 04 	call	0x89a	; 0x89a <SetActiveWeldState>
    11ca:	80 e0       	ldi	r24, 0x00	; 0
    11cc:	90 e0       	ldi	r25, 0x00	; 0
    11ce:	df 91       	pop	r29
    11d0:	cf 91       	pop	r28
    11d2:	0f 91       	pop	r16
    11d4:	08 95       	ret

000011d6 <uiHelper_LoadMenus>:
    11d6:	2f 92       	push	r2
    11d8:	3f 92       	push	r3
    11da:	4f 92       	push	r4
    11dc:	5f 92       	push	r5
    11de:	6f 92       	push	r6
    11e0:	7f 92       	push	r7
    11e2:	8f 92       	push	r8
    11e4:	9f 92       	push	r9
    11e6:	af 92       	push	r10
    11e8:	bf 92       	push	r11
    11ea:	cf 92       	push	r12
    11ec:	df 92       	push	r13
    11ee:	ef 92       	push	r14
    11f0:	ff 92       	push	r15
    11f2:	0f 93       	push	r16
    11f4:	1f 93       	push	r17
    11f6:	cf 93       	push	r28
    11f8:	df 93       	push	r29
    11fa:	00 d0       	rcall	.+0      	; 0x11fc <uiHelper_LoadMenus+0x26>
    11fc:	1f 92       	push	r1
    11fe:	cd b7       	in	r28, 0x3d	; 61
    1200:	de b7       	in	r29, 0x3e	; 62
    1202:	88 e4       	ldi	r24, 0x48	; 72
    1204:	88 2e       	mov	r8, r24
    1206:	81 e0       	ldi	r24, 0x01	; 1
    1208:	98 2e       	mov	r9, r24
    120a:	4f ef       	ldi	r20, 0xFF	; 255
    120c:	d4 01       	movw	r26, r8
    120e:	4c 93       	st	X, r20
    1210:	99 e4       	ldi	r25, 0x49	; 73
    1212:	a9 2e       	mov	r10, r25
    1214:	91 e0       	ldi	r25, 0x01	; 1
    1216:	b9 2e       	mov	r11, r25
    1218:	82 e0       	ldi	r24, 0x02	; 2
    121a:	f5 01       	movw	r30, r10
    121c:	80 83       	st	Z, r24
    121e:	2a e4       	ldi	r18, 0x4A	; 74
    1220:	c2 2e       	mov	r12, r18
    1222:	21 e0       	ldi	r18, 0x01	; 1
    1224:	d2 2e       	mov	r13, r18
    1226:	8c e1       	ldi	r24, 0x1C	; 28
    1228:	93 e0       	ldi	r25, 0x03	; 3
    122a:	d6 01       	movw	r26, r12
    122c:	8d 93       	st	X+, r24
    122e:	9c 93       	st	X, r25
    1230:	38 e5       	ldi	r19, 0x58	; 88
    1232:	e3 2e       	mov	r14, r19
    1234:	31 e0       	ldi	r19, 0x01	; 1
    1236:	f3 2e       	mov	r15, r19
    1238:	80 e1       	ldi	r24, 0x10	; 16
    123a:	f7 01       	movw	r30, r14
    123c:	80 83       	st	Z, r24
    123e:	0c e4       	ldi	r16, 0x4C	; 76
    1240:	11 e0       	ldi	r17, 0x01	; 1
    1242:	8d e0       	ldi	r24, 0x0D	; 13
    1244:	93 e0       	ldi	r25, 0x03	; 3
    1246:	d8 01       	movw	r26, r16
    1248:	8d 93       	st	X+, r24
    124a:	9c 93       	st	X, r25
    124c:	8e e0       	ldi	r24, 0x0E	; 14
    124e:	e9 e5       	ldi	r30, 0x59	; 89
    1250:	f1 e0       	ldi	r31, 0x01	; 1
    1252:	80 83       	st	Z, r24
    1254:	81 e6       	ldi	r24, 0x61	; 97
    1256:	93 e0       	ldi	r25, 0x03	; 3
    1258:	aa e5       	ldi	r26, 0x5A	; 90
    125a:	b1 e0       	ldi	r27, 0x01	; 1
    125c:	8d 93       	st	X+, r24
    125e:	9c 93       	st	X, r25
    1260:	5e e4       	ldi	r21, 0x4E	; 78
    1262:	65 2e       	mov	r6, r21
    1264:	51 e0       	ldi	r21, 0x01	; 1
    1266:	75 2e       	mov	r7, r21
    1268:	87 ee       	ldi	r24, 0xE7	; 231
    126a:	9c e0       	ldi	r25, 0x0C	; 12
    126c:	f3 01       	movw	r30, r6
    126e:	91 83       	std	Z+1, r25	; 0x01
    1270:	80 83       	st	Z, r24
    1272:	60 e5       	ldi	r22, 0x50	; 80
    1274:	46 2e       	mov	r4, r22
    1276:	61 e0       	ldi	r22, 0x01	; 1
    1278:	56 2e       	mov	r5, r22
    127a:	8d e3       	ldi	r24, 0x3D	; 61
    127c:	9e e0       	ldi	r25, 0x0E	; 14
    127e:	d2 01       	movw	r26, r4
    1280:	8d 93       	st	X+, r24
    1282:	9c 93       	st	X, r25
    1284:	c4 01       	movw	r24, r8
    1286:	4b 83       	std	Y+3, r20	; 0x03
    1288:	0e 94 a9 0e 	call	0x1d52	; 0x1d52 <uiObj_Register>
    128c:	80 93 47 01 	sts	0x0147, r24
    1290:	20 90 04 01 	lds	r2, 0x0104
    1294:	31 2c       	mov	r3, r1
    1296:	0e 94 c7 02 	call	0x58e	; 0x58e <GetSysTicks>
    129a:	e0 91 04 01 	lds	r30, 0x0104
    129e:	d1 01       	movw	r26, r2
    12a0:	aa 57       	subi	r26, 0x7A	; 122
    12a2:	be 4f       	sbci	r27, 0xFE	; 254
    12a4:	8e 2f       	mov	r24, r30
    12a6:	82 95       	swap	r24
    12a8:	80 7f       	andi	r24, 0xF0	; 240
    12aa:	86 2b       	or	r24, r22
    12ac:	8c 93       	st	X, r24
    12ae:	20 90 45 01 	lds	r2, 0x0145
    12b2:	30 90 46 01 	lds	r3, 0x0146
    12b6:	81 e0       	ldi	r24, 0x01	; 1
    12b8:	8e 0f       	add	r24, r30
    12ba:	80 93 04 01 	sts	0x0104, r24
    12be:	f0 e0       	ldi	r31, 0x00	; 0
    12c0:	ea 57       	subi	r30, 0x7A	; 122
    12c2:	fe 4f       	sbci	r31, 0xFE	; 254
    12c4:	80 81       	ld	r24, Z
    12c6:	f1 01       	movw	r30, r2
    12c8:	85 8b       	std	Z+21, r24	; 0x15
    12ca:	80 91 47 01 	lds	r24, 0x0147
    12ce:	d4 01       	movw	r26, r8
    12d0:	8c 93       	st	X, r24
    12d2:	83 e0       	ldi	r24, 0x03	; 3
    12d4:	f5 01       	movw	r30, r10
    12d6:	80 83       	st	Z, r24
    12d8:	8c ef       	ldi	r24, 0xFC	; 252
    12da:	92 e0       	ldi	r25, 0x02	; 2
    12dc:	d6 01       	movw	r26, r12
    12de:	8d 93       	st	X+, r24
    12e0:	9c 93       	st	X, r25
    12e2:	80 e1       	ldi	r24, 0x10	; 16
    12e4:	f7 01       	movw	r30, r14
    12e6:	80 83       	st	Z, r24
    12e8:	8d ee       	ldi	r24, 0xED	; 237
    12ea:	92 e0       	ldi	r25, 0x02	; 2
    12ec:	d8 01       	movw	r26, r16
    12ee:	8d 93       	st	X+, r24
    12f0:	9c 93       	st	X, r25
    12f2:	8e e0       	ldi	r24, 0x0E	; 14
    12f4:	e9 e5       	ldi	r30, 0x59	; 89
    12f6:	f1 e0       	ldi	r31, 0x01	; 1
    12f8:	80 83       	st	Z, r24
    12fa:	83 e6       	ldi	r24, 0x63	; 99
    12fc:	93 e0       	ldi	r25, 0x03	; 3
    12fe:	aa e5       	ldi	r26, 0x5A	; 90
    1300:	b1 e0       	ldi	r27, 0x01	; 1
    1302:	8d 93       	st	X+, r24
    1304:	9c 93       	st	X, r25
    1306:	8d e0       	ldi	r24, 0x0D	; 13
    1308:	9d e0       	ldi	r25, 0x0D	; 13
    130a:	f3 01       	movw	r30, r6
    130c:	91 83       	std	Z+1, r25	; 0x01
    130e:	80 83       	st	Z, r24
    1310:	87 e4       	ldi	r24, 0x47	; 71
    1312:	9e e0       	ldi	r25, 0x0E	; 14
    1314:	d2 01       	movw	r26, r4
    1316:	8d 93       	st	X+, r24
    1318:	9c 93       	st	X, r25
    131a:	c4 01       	movw	r24, r8
    131c:	0e 94 a9 0e 	call	0x1d52	; 0x1d52 <uiObj_Register>
    1320:	80 93 47 01 	sts	0x0147, r24
    1324:	20 91 04 01 	lds	r18, 0x0104
    1328:	30 e0       	ldi	r19, 0x00	; 0
    132a:	29 83       	std	Y+1, r18	; 0x01
    132c:	3a 83       	std	Y+2, r19	; 0x02
    132e:	0e 94 c7 02 	call	0x58e	; 0x58e <GetSysTicks>
    1332:	e0 91 04 01 	lds	r30, 0x0104
    1336:	29 81       	ldd	r18, Y+1	; 0x01
    1338:	3a 81       	ldd	r19, Y+2	; 0x02
    133a:	d9 01       	movw	r26, r18
    133c:	aa 57       	subi	r26, 0x7A	; 122
    133e:	be 4f       	sbci	r27, 0xFE	; 254
    1340:	8e 2f       	mov	r24, r30
    1342:	82 95       	swap	r24
    1344:	80 7f       	andi	r24, 0xF0	; 240
    1346:	86 2b       	or	r24, r22
    1348:	8c 93       	st	X, r24
    134a:	81 e0       	ldi	r24, 0x01	; 1
    134c:	8e 0f       	add	r24, r30
    134e:	80 93 04 01 	sts	0x0104, r24
    1352:	f0 e0       	ldi	r31, 0x00	; 0
    1354:	ea 57       	subi	r30, 0x7A	; 122
    1356:	fe 4f       	sbci	r31, 0xFE	; 254
    1358:	80 81       	ld	r24, Z
    135a:	f1 01       	movw	r30, r2
    135c:	85 8b       	std	Z+21, r24	; 0x15
    135e:	80 91 47 01 	lds	r24, 0x0147
    1362:	d4 01       	movw	r26, r8
    1364:	8c 93       	st	X, r24
    1366:	84 e0       	ldi	r24, 0x04	; 4
    1368:	f5 01       	movw	r30, r10
    136a:	80 83       	st	Z, r24
    136c:	8c ed       	ldi	r24, 0xDC	; 220
    136e:	92 e0       	ldi	r25, 0x02	; 2
    1370:	d6 01       	movw	r26, r12
    1372:	8d 93       	st	X+, r24
    1374:	9c 93       	st	X, r25
    1376:	80 e1       	ldi	r24, 0x10	; 16
    1378:	f7 01       	movw	r30, r14
    137a:	80 83       	st	Z, r24
    137c:	8d ec       	ldi	r24, 0xCD	; 205
    137e:	92 e0       	ldi	r25, 0x02	; 2
    1380:	d8 01       	movw	r26, r16
    1382:	8d 93       	st	X+, r24
    1384:	9c 93       	st	X, r25
    1386:	8e e0       	ldi	r24, 0x0E	; 14
    1388:	e9 e5       	ldi	r30, 0x59	; 89
    138a:	f1 e0       	ldi	r31, 0x01	; 1
    138c:	80 83       	st	Z, r24
    138e:	85 e6       	ldi	r24, 0x65	; 101
    1390:	93 e0       	ldi	r25, 0x03	; 3
    1392:	aa e5       	ldi	r26, 0x5A	; 90
    1394:	b1 e0       	ldi	r27, 0x01	; 1
    1396:	8d 93       	st	X+, r24
    1398:	9c 93       	st	X, r25
    139a:	83 e3       	ldi	r24, 0x33	; 51
    139c:	9d e0       	ldi	r25, 0x0D	; 13
    139e:	f3 01       	movw	r30, r6
    13a0:	91 83       	std	Z+1, r25	; 0x01
    13a2:	80 83       	st	Z, r24
    13a4:	81 e5       	ldi	r24, 0x51	; 81
    13a6:	9e e0       	ldi	r25, 0x0E	; 14
    13a8:	d2 01       	movw	r26, r4
    13aa:	8d 93       	st	X+, r24
    13ac:	9c 93       	st	X, r25
    13ae:	c4 01       	movw	r24, r8
    13b0:	0e 94 a9 0e 	call	0x1d52	; 0x1d52 <uiObj_Register>
    13b4:	80 93 47 01 	sts	0x0147, r24
    13b8:	20 91 04 01 	lds	r18, 0x0104
    13bc:	30 e0       	ldi	r19, 0x00	; 0
    13be:	29 83       	std	Y+1, r18	; 0x01
    13c0:	3a 83       	std	Y+2, r19	; 0x02
    13c2:	0e 94 c7 02 	call	0x58e	; 0x58e <GetSysTicks>
    13c6:	e0 91 04 01 	lds	r30, 0x0104
    13ca:	29 81       	ldd	r18, Y+1	; 0x01
    13cc:	3a 81       	ldd	r19, Y+2	; 0x02
    13ce:	d9 01       	movw	r26, r18
    13d0:	aa 57       	subi	r26, 0x7A	; 122
    13d2:	be 4f       	sbci	r27, 0xFE	; 254
    13d4:	8e 2f       	mov	r24, r30
    13d6:	82 95       	swap	r24
    13d8:	80 7f       	andi	r24, 0xF0	; 240
    13da:	86 2b       	or	r24, r22
    13dc:	8c 93       	st	X, r24
    13de:	81 e0       	ldi	r24, 0x01	; 1
    13e0:	8e 0f       	add	r24, r30
    13e2:	80 93 04 01 	sts	0x0104, r24
    13e6:	f0 e0       	ldi	r31, 0x00	; 0
    13e8:	ea 57       	subi	r30, 0x7A	; 122
    13ea:	fe 4f       	sbci	r31, 0xFE	; 254
    13ec:	80 81       	ld	r24, Z
    13ee:	f1 01       	movw	r30, r2
    13f0:	85 8b       	std	Z+21, r24	; 0x15
    13f2:	80 91 47 01 	lds	r24, 0x0147
    13f6:	d4 01       	movw	r26, r8
    13f8:	8c 93       	st	X, r24
    13fa:	85 e0       	ldi	r24, 0x05	; 5
    13fc:	f5 01       	movw	r30, r10
    13fe:	80 83       	st	Z, r24
    1400:	8c eb       	ldi	r24, 0xBC	; 188
    1402:	92 e0       	ldi	r25, 0x02	; 2
    1404:	d6 01       	movw	r26, r12
    1406:	8d 93       	st	X+, r24
    1408:	9c 93       	st	X, r25
    140a:	80 e1       	ldi	r24, 0x10	; 16
    140c:	f7 01       	movw	r30, r14
    140e:	80 83       	st	Z, r24
    1410:	8d ea       	ldi	r24, 0xAD	; 173
    1412:	92 e0       	ldi	r25, 0x02	; 2
    1414:	d8 01       	movw	r26, r16
    1416:	8d 93       	st	X+, r24
    1418:	9c 93       	st	X, r25
    141a:	8e e0       	ldi	r24, 0x0E	; 14
    141c:	e9 e5       	ldi	r30, 0x59	; 89
    141e:	f1 e0       	ldi	r31, 0x01	; 1
    1420:	80 83       	st	Z, r24
    1422:	e7 e6       	ldi	r30, 0x67	; 103
    1424:	f3 e0       	ldi	r31, 0x03	; 3
    1426:	aa e5       	ldi	r26, 0x5A	; 90
    1428:	b1 e0       	ldi	r27, 0x01	; 1
    142a:	ed 93       	st	X+, r30
    142c:	fc 93       	st	X, r31
    142e:	89 e5       	ldi	r24, 0x59	; 89
    1430:	9d e0       	ldi	r25, 0x0D	; 13
    1432:	d3 01       	movw	r26, r6
    1434:	8d 93       	st	X+, r24
    1436:	9c 93       	st	X, r25
    1438:	8b e5       	ldi	r24, 0x5B	; 91
    143a:	9e e0       	ldi	r25, 0x0E	; 14
    143c:	f2 01       	movw	r30, r4
    143e:	91 83       	std	Z+1, r25	; 0x01
    1440:	80 83       	st	Z, r24
    1442:	c4 01       	movw	r24, r8
    1444:	0e 94 a9 0e 	call	0x1d52	; 0x1d52 <uiObj_Register>
    1448:	80 93 47 01 	sts	0x0147, r24
    144c:	20 91 04 01 	lds	r18, 0x0104
    1450:	30 e0       	ldi	r19, 0x00	; 0
    1452:	29 83       	std	Y+1, r18	; 0x01
    1454:	3a 83       	std	Y+2, r19	; 0x02
    1456:	0e 94 c7 02 	call	0x58e	; 0x58e <GetSysTicks>
    145a:	e0 91 04 01 	lds	r30, 0x0104
    145e:	29 81       	ldd	r18, Y+1	; 0x01
    1460:	3a 81       	ldd	r19, Y+2	; 0x02
    1462:	d9 01       	movw	r26, r18
    1464:	aa 57       	subi	r26, 0x7A	; 122
    1466:	be 4f       	sbci	r27, 0xFE	; 254
    1468:	8e 2f       	mov	r24, r30
    146a:	82 95       	swap	r24
    146c:	80 7f       	andi	r24, 0xF0	; 240
    146e:	86 2b       	or	r24, r22
    1470:	8c 93       	st	X, r24
    1472:	81 e0       	ldi	r24, 0x01	; 1
    1474:	8e 0f       	add	r24, r30
    1476:	80 93 04 01 	sts	0x0104, r24
    147a:	f0 e0       	ldi	r31, 0x00	; 0
    147c:	ea 57       	subi	r30, 0x7A	; 122
    147e:	fe 4f       	sbci	r31, 0xFE	; 254
    1480:	80 81       	ld	r24, Z
    1482:	d1 01       	movw	r26, r2
    1484:	55 96       	adiw	r26, 0x15	; 21
    1486:	8c 93       	st	X, r24
    1488:	80 91 47 01 	lds	r24, 0x0147
    148c:	f4 01       	movw	r30, r8
    148e:	80 83       	st	Z, r24
    1490:	86 e0       	ldi	r24, 0x06	; 6
    1492:	d5 01       	movw	r26, r10
    1494:	8c 93       	st	X, r24
    1496:	8c e9       	ldi	r24, 0x9C	; 156
    1498:	92 e0       	ldi	r25, 0x02	; 2
    149a:	f6 01       	movw	r30, r12
    149c:	91 83       	std	Z+1, r25	; 0x01
    149e:	80 83       	st	Z, r24
    14a0:	e0 e1       	ldi	r30, 0x10	; 16
    14a2:	d7 01       	movw	r26, r14
    14a4:	ec 93       	st	X, r30
    14a6:	8d e8       	ldi	r24, 0x8D	; 141
    14a8:	92 e0       	ldi	r25, 0x02	; 2
    14aa:	d8 01       	movw	r26, r16
    14ac:	8d 93       	st	X+, r24
    14ae:	9c 93       	st	X, r25
    14b0:	8e e0       	ldi	r24, 0x0E	; 14
    14b2:	e9 e5       	ldi	r30, 0x59	; 89
    14b4:	f1 e0       	ldi	r31, 0x01	; 1
    14b6:	80 83       	st	Z, r24
    14b8:	e7 e6       	ldi	r30, 0x67	; 103
    14ba:	f3 e0       	ldi	r31, 0x03	; 3
    14bc:	aa e5       	ldi	r26, 0x5A	; 90
    14be:	b1 e0       	ldi	r27, 0x01	; 1
    14c0:	ed 93       	st	X+, r30
    14c2:	fc 93       	st	X, r31
    14c4:	89 e7       	ldi	r24, 0x79	; 121
    14c6:	97 e0       	ldi	r25, 0x07	; 7
    14c8:	d3 01       	movw	r26, r6
    14ca:	8d 93       	st	X+, r24
    14cc:	9c 93       	st	X, r25
    14ce:	82 e2       	ldi	r24, 0x22	; 34
    14d0:	97 e0       	ldi	r25, 0x07	; 7
    14d2:	f2 01       	movw	r30, r4
    14d4:	91 83       	std	Z+1, r25	; 0x01
    14d6:	80 83       	st	Z, r24
    14d8:	c4 01       	movw	r24, r8
    14da:	0e 94 a9 0e 	call	0x1d52	; 0x1d52 <uiObj_Register>
    14de:	80 93 47 01 	sts	0x0147, r24
    14e2:	20 91 04 01 	lds	r18, 0x0104
    14e6:	30 e0       	ldi	r19, 0x00	; 0
    14e8:	29 83       	std	Y+1, r18	; 0x01
    14ea:	3a 83       	std	Y+2, r19	; 0x02
    14ec:	0e 94 c7 02 	call	0x58e	; 0x58e <GetSysTicks>
    14f0:	e0 91 04 01 	lds	r30, 0x0104
    14f4:	29 81       	ldd	r18, Y+1	; 0x01
    14f6:	3a 81       	ldd	r19, Y+2	; 0x02
    14f8:	d9 01       	movw	r26, r18
    14fa:	aa 57       	subi	r26, 0x7A	; 122
    14fc:	be 4f       	sbci	r27, 0xFE	; 254
    14fe:	8e 2f       	mov	r24, r30
    1500:	82 95       	swap	r24
    1502:	80 7f       	andi	r24, 0xF0	; 240
    1504:	86 2b       	or	r24, r22
    1506:	8c 93       	st	X, r24
    1508:	81 e0       	ldi	r24, 0x01	; 1
    150a:	8e 0f       	add	r24, r30
    150c:	80 93 04 01 	sts	0x0104, r24
    1510:	f0 e0       	ldi	r31, 0x00	; 0
    1512:	ea 57       	subi	r30, 0x7A	; 122
    1514:	fe 4f       	sbci	r31, 0xFE	; 254
    1516:	80 81       	ld	r24, Z
    1518:	d1 01       	movw	r26, r2
    151a:	55 96       	adiw	r26, 0x15	; 21
    151c:	8c 93       	st	X, r24
    151e:	80 91 47 01 	lds	r24, 0x0147
    1522:	f4 01       	movw	r30, r8
    1524:	80 83       	st	Z, r24
    1526:	87 e0       	ldi	r24, 0x07	; 7
    1528:	d5 01       	movw	r26, r10
    152a:	8c 93       	st	X, r24
    152c:	8c e7       	ldi	r24, 0x7C	; 124
    152e:	92 e0       	ldi	r25, 0x02	; 2
    1530:	f6 01       	movw	r30, r12
    1532:	91 83       	std	Z+1, r25	; 0x01
    1534:	80 83       	st	Z, r24
    1536:	e0 e1       	ldi	r30, 0x10	; 16
    1538:	d7 01       	movw	r26, r14
    153a:	ec 93       	st	X, r30
    153c:	8d e6       	ldi	r24, 0x6D	; 109
    153e:	92 e0       	ldi	r25, 0x02	; 2
    1540:	d8 01       	movw	r26, r16
    1542:	8d 93       	st	X+, r24
    1544:	9c 93       	st	X, r25
    1546:	8e e0       	ldi	r24, 0x0E	; 14
    1548:	e9 e5       	ldi	r30, 0x59	; 89
    154a:	f1 e0       	ldi	r31, 0x01	; 1
    154c:	80 83       	st	Z, r24
    154e:	8e e5       	ldi	r24, 0x5E	; 94
    1550:	93 e0       	ldi	r25, 0x03	; 3
    1552:	aa e5       	ldi	r26, 0x5A	; 90
    1554:	b1 e0       	ldi	r27, 0x01	; 1
    1556:	8d 93       	st	X+, r24
    1558:	9c 93       	st	X, r25
    155a:	8f e7       	ldi	r24, 0x7F	; 127
    155c:	9d e0       	ldi	r25, 0x0D	; 13
    155e:	f3 01       	movw	r30, r6
    1560:	91 83       	std	Z+1, r25	; 0x01
    1562:	80 83       	st	Z, r24
    1564:	85 e6       	ldi	r24, 0x65	; 101
    1566:	9e e0       	ldi	r25, 0x0E	; 14
    1568:	d2 01       	movw	r26, r4
    156a:	8d 93       	st	X+, r24
    156c:	9c 93       	st	X, r25
    156e:	c4 01       	movw	r24, r8
    1570:	0e 94 a9 0e 	call	0x1d52	; 0x1d52 <uiObj_Register>
    1574:	80 93 47 01 	sts	0x0147, r24
    1578:	20 91 04 01 	lds	r18, 0x0104
    157c:	30 e0       	ldi	r19, 0x00	; 0
    157e:	29 83       	std	Y+1, r18	; 0x01
    1580:	3a 83       	std	Y+2, r19	; 0x02
    1582:	0e 94 c7 02 	call	0x58e	; 0x58e <GetSysTicks>
    1586:	e0 91 04 01 	lds	r30, 0x0104
    158a:	29 81       	ldd	r18, Y+1	; 0x01
    158c:	3a 81       	ldd	r19, Y+2	; 0x02
    158e:	d9 01       	movw	r26, r18
    1590:	aa 57       	subi	r26, 0x7A	; 122
    1592:	be 4f       	sbci	r27, 0xFE	; 254
    1594:	8e 2f       	mov	r24, r30
    1596:	82 95       	swap	r24
    1598:	80 7f       	andi	r24, 0xF0	; 240
    159a:	86 2b       	or	r24, r22
    159c:	8c 93       	st	X, r24
    159e:	81 e0       	ldi	r24, 0x01	; 1
    15a0:	8e 0f       	add	r24, r30
    15a2:	80 93 04 01 	sts	0x0104, r24
    15a6:	f0 e0       	ldi	r31, 0x00	; 0
    15a8:	ea 57       	subi	r30, 0x7A	; 122
    15aa:	fe 4f       	sbci	r31, 0xFE	; 254
    15ac:	80 81       	ld	r24, Z
    15ae:	f1 01       	movw	r30, r2
    15b0:	85 8b       	std	Z+21, r24	; 0x15
    15b2:	80 91 47 01 	lds	r24, 0x0147
    15b6:	d4 01       	movw	r26, r8
    15b8:	8c 93       	st	X, r24
    15ba:	88 e0       	ldi	r24, 0x08	; 8
    15bc:	f5 01       	movw	r30, r10
    15be:	80 83       	st	Z, r24
    15c0:	8c e5       	ldi	r24, 0x5C	; 92
    15c2:	92 e0       	ldi	r25, 0x02	; 2
    15c4:	d6 01       	movw	r26, r12
    15c6:	8d 93       	st	X+, r24
    15c8:	9c 93       	st	X, r25
    15ca:	80 e1       	ldi	r24, 0x10	; 16
    15cc:	f7 01       	movw	r30, r14
    15ce:	80 83       	st	Z, r24
    15d0:	8d e4       	ldi	r24, 0x4D	; 77
    15d2:	92 e0       	ldi	r25, 0x02	; 2
    15d4:	d8 01       	movw	r26, r16
    15d6:	8d 93       	st	X+, r24
    15d8:	9c 93       	st	X, r25
    15da:	8e e0       	ldi	r24, 0x0E	; 14
    15dc:	e9 e5       	ldi	r30, 0x59	; 89
    15de:	f1 e0       	ldi	r31, 0x01	; 1
    15e0:	80 83       	st	Z, r24
    15e2:	e7 e6       	ldi	r30, 0x67	; 103
    15e4:	f3 e0       	ldi	r31, 0x03	; 3
    15e6:	aa e5       	ldi	r26, 0x5A	; 90
    15e8:	b1 e0       	ldi	r27, 0x01	; 1
    15ea:	ed 93       	st	X+, r30
    15ec:	fc 93       	st	X, r31
    15ee:	8d e3       	ldi	r24, 0x3D	; 61
    15f0:	98 e0       	ldi	r25, 0x08	; 8
    15f2:	d3 01       	movw	r26, r6
    15f4:	8d 93       	st	X+, r24
    15f6:	9c 93       	st	X, r25
    15f8:	83 e4       	ldi	r24, 0x43	; 67
    15fa:	97 e0       	ldi	r25, 0x07	; 7
    15fc:	f2 01       	movw	r30, r4
    15fe:	91 83       	std	Z+1, r25	; 0x01
    1600:	80 83       	st	Z, r24
    1602:	c4 01       	movw	r24, r8
    1604:	0e 94 a9 0e 	call	0x1d52	; 0x1d52 <uiObj_Register>
    1608:	80 93 47 01 	sts	0x0147, r24
    160c:	20 91 04 01 	lds	r18, 0x0104
    1610:	30 e0       	ldi	r19, 0x00	; 0
    1612:	29 83       	std	Y+1, r18	; 0x01
    1614:	3a 83       	std	Y+2, r19	; 0x02
    1616:	0e 94 c7 02 	call	0x58e	; 0x58e <GetSysTicks>
    161a:	e0 91 04 01 	lds	r30, 0x0104
    161e:	29 81       	ldd	r18, Y+1	; 0x01
    1620:	3a 81       	ldd	r19, Y+2	; 0x02
    1622:	d9 01       	movw	r26, r18
    1624:	aa 57       	subi	r26, 0x7A	; 122
    1626:	be 4f       	sbci	r27, 0xFE	; 254
    1628:	8e 2f       	mov	r24, r30
    162a:	82 95       	swap	r24
    162c:	80 7f       	andi	r24, 0xF0	; 240
    162e:	86 2b       	or	r24, r22
    1630:	8c 93       	st	X, r24
    1632:	81 e0       	ldi	r24, 0x01	; 1
    1634:	8e 0f       	add	r24, r30
    1636:	80 93 04 01 	sts	0x0104, r24
    163a:	f0 e0       	ldi	r31, 0x00	; 0
    163c:	ea 57       	subi	r30, 0x7A	; 122
    163e:	fe 4f       	sbci	r31, 0xFE	; 254
    1640:	80 81       	ld	r24, Z
    1642:	d1 01       	movw	r26, r2
    1644:	55 96       	adiw	r26, 0x15	; 21
    1646:	8c 93       	st	X, r24
    1648:	80 91 47 01 	lds	r24, 0x0147
    164c:	f4 01       	movw	r30, r8
    164e:	80 83       	st	Z, r24
    1650:	4b 81       	ldd	r20, Y+3	; 0x03
    1652:	d5 01       	movw	r26, r10
    1654:	4c 93       	st	X, r20
    1656:	8c e3       	ldi	r24, 0x3C	; 60
    1658:	92 e0       	ldi	r25, 0x02	; 2
    165a:	f6 01       	movw	r30, r12
    165c:	91 83       	std	Z+1, r25	; 0x01
    165e:	80 83       	st	Z, r24
    1660:	e0 e1       	ldi	r30, 0x10	; 16
    1662:	d7 01       	movw	r26, r14
    1664:	ec 93       	st	X, r30
    1666:	8d e2       	ldi	r24, 0x2D	; 45
    1668:	92 e0       	ldi	r25, 0x02	; 2
    166a:	d8 01       	movw	r26, r16
    166c:	8d 93       	st	X+, r24
    166e:	9c 93       	st	X, r25
    1670:	8e e0       	ldi	r24, 0x0E	; 14
    1672:	e9 e5       	ldi	r30, 0x59	; 89
    1674:	f1 e0       	ldi	r31, 0x01	; 1
    1676:	80 83       	st	Z, r24
    1678:	d3 01       	movw	r26, r6
    167a:	1d 92       	st	X+, r1
    167c:	1c 92       	st	X, r1
    167e:	f2 01       	movw	r30, r4
    1680:	11 82       	std	Z+1, r1	; 0x01
    1682:	10 82       	st	Z, r1
    1684:	83 e0       	ldi	r24, 0x03	; 3
    1686:	98 e0       	ldi	r25, 0x08	; 8
    1688:	90 93 53 01 	sts	0x0153, r25
    168c:	80 93 52 01 	sts	0x0152, r24
    1690:	c4 01       	movw	r24, r8
    1692:	0e 94 a9 0e 	call	0x1d52	; 0x1d52 <uiObj_Register>
    1696:	80 93 47 01 	sts	0x0147, r24
    169a:	00 91 04 01 	lds	r16, 0x0104
    169e:	10 e0       	ldi	r17, 0x00	; 0
    16a0:	0e 94 c7 02 	call	0x58e	; 0x58e <GetSysTicks>
    16a4:	e0 91 04 01 	lds	r30, 0x0104
    16a8:	d8 01       	movw	r26, r16
    16aa:	aa 57       	subi	r26, 0x7A	; 122
    16ac:	be 4f       	sbci	r27, 0xFE	; 254
    16ae:	8e 2f       	mov	r24, r30
    16b0:	82 95       	swap	r24
    16b2:	80 7f       	andi	r24, 0xF0	; 240
    16b4:	86 2b       	or	r24, r22
    16b6:	8c 93       	st	X, r24
    16b8:	81 e0       	ldi	r24, 0x01	; 1
    16ba:	8e 0f       	add	r24, r30
    16bc:	80 93 04 01 	sts	0x0104, r24
    16c0:	f0 e0       	ldi	r31, 0x00	; 0
    16c2:	ea 57       	subi	r30, 0x7A	; 122
    16c4:	fe 4f       	sbci	r31, 0xFE	; 254
    16c6:	80 81       	ld	r24, Z
    16c8:	d1 01       	movw	r26, r2
    16ca:	55 96       	adiw	r26, 0x15	; 21
    16cc:	8c 93       	st	X, r24
    16ce:	80 e0       	ldi	r24, 0x00	; 0
    16d0:	90 e0       	ldi	r25, 0x00	; 0
    16d2:	0f 90       	pop	r0
    16d4:	0f 90       	pop	r0
    16d6:	0f 90       	pop	r0
    16d8:	df 91       	pop	r29
    16da:	cf 91       	pop	r28
    16dc:	1f 91       	pop	r17
    16de:	0f 91       	pop	r16
    16e0:	ff 90       	pop	r15
    16e2:	ef 90       	pop	r14
    16e4:	df 90       	pop	r13
    16e6:	cf 90       	pop	r12
    16e8:	bf 90       	pop	r11
    16ea:	af 90       	pop	r10
    16ec:	9f 90       	pop	r9
    16ee:	8f 90       	pop	r8
    16f0:	7f 90       	pop	r7
    16f2:	6f 90       	pop	r6
    16f4:	5f 90       	pop	r5
    16f6:	4f 90       	pop	r4
    16f8:	3f 90       	pop	r3
    16fa:	2f 90       	pop	r2
    16fc:	08 95       	ret

000016fe <uiHelper_SetNumericParam>:
    16fe:	3f 92       	push	r3
    1700:	4f 92       	push	r4
    1702:	5f 92       	push	r5
    1704:	6f 92       	push	r6
    1706:	7f 92       	push	r7
    1708:	8f 92       	push	r8
    170a:	9f 92       	push	r9
    170c:	af 92       	push	r10
    170e:	bf 92       	push	r11
    1710:	cf 92       	push	r12
    1712:	df 92       	push	r13
    1714:	ef 92       	push	r14
    1716:	ff 92       	push	r15
    1718:	0f 93       	push	r16
    171a:	1f 93       	push	r17
    171c:	cf 93       	push	r28
    171e:	df 93       	push	r29
    1720:	6c 01       	movw	r12, r24
    1722:	5b 01       	movw	r10, r22
    1724:	ea 01       	movw	r28, r20
    1726:	49 01       	movw	r8, r18
    1728:	dc 01       	movw	r26, r24
    172a:	8d 91       	ld	r24, X+
    172c:	9c 91       	ld	r25, X
    172e:	84 17       	cp	r24, r20
    1730:	95 07       	cpc	r25, r21
    1732:	28 f0       	brcs	.+10     	; 0x173e <uiHelper_SetNumericParam+0x40>
    1734:	90 93 44 01 	sts	0x0144, r25
    1738:	80 93 43 01 	sts	0x0143, r24
    173c:	04 c0       	rjmp	.+8      	; 0x1746 <uiHelper_SetNumericParam+0x48>
    173e:	50 93 44 01 	sts	0x0144, r21
    1742:	40 93 43 01 	sts	0x0143, r20
    1746:	80 91 43 01 	lds	r24, 0x0143
    174a:	90 91 44 01 	lds	r25, 0x0144
    174e:	01 96       	adiw	r24, 0x01	; 1
    1750:	90 93 42 01 	sts	0x0142, r25
    1754:	80 93 41 01 	sts	0x0141, r24
    1758:	10 92 40 01 	sts	0x0140, r1
    175c:	10 92 3f 01 	sts	0x013F, r1
    1760:	e1 2c       	mov	r14, r1
    1762:	f1 2c       	mov	r15, r1
    1764:	e8 e0       	ldi	r30, 0x08	; 8
    1766:	3e 2e       	mov	r3, r30
    1768:	60 2e       	mov	r6, r16
    176a:	71 2c       	mov	r7, r1
    176c:	24 01       	movw	r4, r8
    176e:	bf ef       	ldi	r27, 0xFF	; 255
    1770:	4b 1a       	sub	r4, r27
    1772:	5b 0a       	sbc	r5, r27
    1774:	80 91 3f 01 	lds	r24, 0x013F
    1778:	81 11       	cpse	r24, r1
    177a:	f1 c0       	rjmp	.+482    	; 0x195e <uiHelper_SetNumericParam+0x260>
    177c:	87 e7       	ldi	r24, 0x77	; 119
    177e:	91 e0       	ldi	r25, 0x01	; 1
    1780:	0e 94 b9 0f 	call	0x1f72	; 0x1f72 <UI_ProcessInput>
    1784:	00 91 43 01 	lds	r16, 0x0143
    1788:	10 91 44 01 	lds	r17, 0x0144
    178c:	80 91 41 01 	lds	r24, 0x0141
    1790:	90 91 42 01 	lds	r25, 0x0142
    1794:	08 17       	cp	r16, r24
    1796:	19 07       	cpc	r17, r25
    1798:	09 f4       	brne	.+2      	; 0x179c <uiHelper_SetNumericParam+0x9e>
    179a:	69 c0       	rjmp	.+210    	; 0x186e <uiHelper_SetNumericParam+0x170>
    179c:	10 93 42 01 	sts	0x0142, r17
    17a0:	00 93 41 01 	sts	0x0141, r16
    17a4:	40 e1       	ldi	r20, 0x10	; 16
    17a6:	50 e0       	ldi	r21, 0x00	; 0
    17a8:	60 e2       	ldi	r22, 0x20	; 32
    17aa:	70 e0       	ldi	r23, 0x00	; 0
    17ac:	87 e6       	ldi	r24, 0x67	; 103
    17ae:	91 e0       	ldi	r25, 0x01	; 1
    17b0:	0e 94 dc 16 	call	0x2db8	; 0x2db8 <memset>
    17b4:	4a e0       	ldi	r20, 0x0A	; 10
    17b6:	6e e5       	ldi	r22, 0x5E	; 94
    17b8:	71 e0       	ldi	r23, 0x01	; 1
    17ba:	c8 01       	movw	r24, r16
    17bc:	0e 94 e3 16 	call	0x2dc6	; 0x2dc6 <__utoa_ncheck>
    17c0:	ee e5       	ldi	r30, 0x5E	; 94
    17c2:	f1 e0       	ldi	r31, 0x01	; 1
    17c4:	01 90       	ld	r0, Z+
    17c6:	00 20       	and	r0, r0
    17c8:	e9 f7       	brne	.-6      	; 0x17c4 <uiHelper_SetNumericParam+0xc6>
    17ca:	31 97       	sbiw	r30, 0x01	; 1
    17cc:	ee 55       	subi	r30, 0x5E	; 94
    17ce:	f1 40       	sbci	r31, 0x01	; 1
    17d0:	8e 2f       	mov	r24, r30
    17d2:	86 95       	lsr	r24
    17d4:	33 2d       	mov	r19, r3
    17d6:	38 1b       	sub	r19, r24
    17d8:	43 2f       	mov	r20, r19
    17da:	4e 0f       	add	r20, r30
    17dc:	23 2f       	mov	r18, r19
    17de:	62 2f       	mov	r22, r18
    17e0:	70 e0       	ldi	r23, 0x00	; 0
    17e2:	69 59       	subi	r22, 0x99	; 153
    17e4:	7e 4f       	sbci	r23, 0xFE	; 254
    17e6:	82 2f       	mov	r24, r18
    17e8:	83 1b       	sub	r24, r19
    17ea:	90 e0       	ldi	r25, 0x00	; 0
    17ec:	82 5a       	subi	r24, 0xA2	; 162
    17ee:	9e 4f       	sbci	r25, 0xFE	; 254
    17f0:	dc 01       	movw	r26, r24
    17f2:	8c 91       	ld	r24, X
    17f4:	db 01       	movw	r26, r22
    17f6:	8c 93       	st	X, r24
    17f8:	2f 5f       	subi	r18, 0xFF	; 255
    17fa:	24 13       	cpse	r18, r20
    17fc:	f0 cf       	rjmp	.-32     	; 0x17de <uiHelper_SetNumericParam+0xe0>
    17fe:	10 92 3e 01 	sts	0x013E, r1
    1802:	20 93 3d 01 	sts	0x013D, r18
    1806:	e0 93 3c 01 	sts	0x013C, r30
    180a:	80 91 40 01 	lds	r24, 0x0140
    180e:	02 e0       	ldi	r16, 0x02	; 2
    1810:	21 e0       	ldi	r18, 0x01	; 1
    1812:	40 e0       	ldi	r20, 0x00	; 0
    1814:	60 e1       	ldi	r22, 0x10	; 16
    1816:	88 23       	and	r24, r24
    1818:	19 f0       	breq	.+6      	; 0x1820 <uiHelper_SetNumericParam+0x122>
    181a:	8c e1       	ldi	r24, 0x1C	; 28
    181c:	92 e0       	ldi	r25, 0x02	; 2
    181e:	02 c0       	rjmp	.+4      	; 0x1824 <uiHelper_SetNumericParam+0x126>
    1820:	8b e0       	ldi	r24, 0x0B	; 11
    1822:	92 e0       	ldi	r25, 0x02	; 2
    1824:	0e 94 05 05 	call	0xa0a	; 0xa0a <vfdPrintStrXY>
    1828:	80 91 43 01 	lds	r24, 0x0143
    182c:	90 91 44 01 	lds	r25, 0x0144
    1830:	c8 17       	cp	r28, r24
    1832:	d9 07       	cpc	r29, r25
    1834:	38 f4       	brcc	.+14     	; 0x1844 <uiHelper_SetNumericParam+0x146>
    1836:	61 e0       	ldi	r22, 0x01	; 1
    1838:	87 e0       	ldi	r24, 0x07	; 7
    183a:	0e 94 c3 04 	call	0x986	; 0x986 <vfdGotoXY>
    183e:	8e e1       	ldi	r24, 0x1E	; 30
    1840:	0e 94 aa 04 	call	0x954	; 0x954 <vfdSendData>
    1844:	80 91 43 01 	lds	r24, 0x0143
    1848:	90 91 44 01 	lds	r25, 0x0144
    184c:	8a 15       	cp	r24, r10
    184e:	9b 05       	cpc	r25, r11
    1850:	38 f4       	brcc	.+14     	; 0x1860 <uiHelper_SetNumericParam+0x162>
    1852:	61 e0       	ldi	r22, 0x01	; 1
    1854:	88 e0       	ldi	r24, 0x08	; 8
    1856:	0e 94 c3 04 	call	0x986	; 0x986 <vfdGotoXY>
    185a:	8d e1       	ldi	r24, 0x1D	; 29
    185c:	0e 94 aa 04 	call	0x954	; 0x954 <vfdSendData>
    1860:	20 e0       	ldi	r18, 0x00	; 0
    1862:	40 e0       	ldi	r20, 0x00	; 0
    1864:	60 e1       	ldi	r22, 0x10	; 16
    1866:	87 e6       	ldi	r24, 0x67	; 103
    1868:	91 e0       	ldi	r25, 0x01	; 1
    186a:	0e 94 3b 05 	call	0xa76	; 0xa76 <vfdCopyStr>
    186e:	80 91 81 01 	lds	r24, 0x0181
    1872:	81 30       	cpi	r24, 0x01	; 1
    1874:	61 f5       	brne	.+88     	; 0x18ce <uiHelper_SetNumericParam+0x1d0>
    1876:	20 91 83 01 	lds	r18, 0x0183
    187a:	22 23       	and	r18, r18
    187c:	31 f1       	breq	.+76     	; 0x18ca <uiHelper_SetNumericParam+0x1cc>
    187e:	80 91 82 01 	lds	r24, 0x0182
    1882:	81 11       	cpse	r24, r1
    1884:	0c c0       	rjmp	.+24     	; 0x189e <uiHelper_SetNumericParam+0x1a0>
    1886:	80 91 43 01 	lds	r24, 0x0143
    188a:	90 91 44 01 	lds	r25, 0x0144
    188e:	8a 15       	cp	r24, r10
    1890:	9b 05       	cpc	r25, r11
    1892:	10 f4       	brcc	.+4      	; 0x1898 <uiHelper_SetNumericParam+0x19a>
    1894:	86 0d       	add	r24, r6
    1896:	97 1d       	adc	r25, r7
    1898:	21 50       	subi	r18, 0x01	; 1
    189a:	c9 f7       	brne	.-14     	; 0x188e <uiHelper_SetNumericParam+0x190>
    189c:	0d c0       	rjmp	.+26     	; 0x18b8 <uiHelper_SetNumericParam+0x1ba>
    189e:	81 30       	cpi	r24, 0x01	; 1
    18a0:	a1 f4       	brne	.+40     	; 0x18ca <uiHelper_SetNumericParam+0x1cc>
    18a2:	80 91 43 01 	lds	r24, 0x0143
    18a6:	90 91 44 01 	lds	r25, 0x0144
    18aa:	c8 17       	cp	r28, r24
    18ac:	d9 07       	cpc	r29, r25
    18ae:	10 f4       	brcc	.+4      	; 0x18b4 <uiHelper_SetNumericParam+0x1b6>
    18b0:	86 19       	sub	r24, r6
    18b2:	97 09       	sbc	r25, r7
    18b4:	21 50       	subi	r18, 0x01	; 1
    18b6:	c9 f7       	brne	.-14     	; 0x18aa <uiHelper_SetNumericParam+0x1ac>
    18b8:	90 93 44 01 	sts	0x0144, r25
    18bc:	80 93 43 01 	sts	0x0143, r24
    18c0:	10 92 83 01 	sts	0x0183, r1
    18c4:	81 e0       	ldi	r24, 0x01	; 1
    18c6:	80 93 40 01 	sts	0x0140, r24
    18ca:	10 92 81 01 	sts	0x0181, r1
    18ce:	80 91 77 01 	lds	r24, 0x0177
    18d2:	81 30       	cpi	r24, 0x01	; 1
    18d4:	09 f0       	breq	.+2      	; 0x18d8 <uiHelper_SetNumericParam+0x1da>
    18d6:	4e cf       	rjmp	.-356    	; 0x1774 <uiHelper_SetNumericParam+0x76>
    18d8:	80 91 78 01 	lds	r24, 0x0178
    18dc:	81 30       	cpi	r24, 0x01	; 1
    18de:	49 f4       	brne	.+18     	; 0x18f2 <uiHelper_SetNumericParam+0x1f4>
    18e0:	90 91 40 01 	lds	r25, 0x0140
    18e4:	99 23       	and	r25, r25
    18e6:	29 f0       	breq	.+10     	; 0x18f2 <uiHelper_SetNumericParam+0x1f4>
    18e8:	80 93 3f 01 	sts	0x013F, r24
    18ec:	ee 24       	eor	r14, r14
    18ee:	e3 94       	inc	r14
    18f0:	f1 2c       	mov	r15, r1
    18f2:	20 91 79 01 	lds	r18, 0x0179
    18f6:	21 30       	cpi	r18, 0x01	; 1
    18f8:	59 f4       	brne	.+22     	; 0x1910 <uiHelper_SetNumericParam+0x212>
    18fa:	f6 01       	movw	r30, r12
    18fc:	80 81       	ld	r24, Z
    18fe:	91 81       	ldd	r25, Z+1	; 0x01
    1900:	90 93 42 01 	sts	0x0142, r25
    1904:	80 93 41 01 	sts	0x0141, r24
    1908:	20 93 3f 01 	sts	0x013F, r18
    190c:	e1 2c       	mov	r14, r1
    190e:	f1 2c       	mov	r15, r1
    1910:	80 91 7a 01 	lds	r24, 0x017A
    1914:	81 30       	cpi	r24, 0x01	; 1
    1916:	01 f5       	brne	.+64     	; 0x1958 <uiHelper_SetNumericParam+0x25a>
    1918:	0e 94 f0 05 	call	0xbe0	; 0xbe0 <vfdClr>
    191c:	02 e0       	ldi	r16, 0x02	; 2
    191e:	20 e0       	ldi	r18, 0x00	; 0
    1920:	40 e0       	ldi	r20, 0x00	; 0
    1922:	60 e1       	ldi	r22, 0x10	; 16
    1924:	8a ef       	ldi	r24, 0xFA	; 250
    1926:	91 e0       	ldi	r25, 0x01	; 1
    1928:	0e 94 05 05 	call	0xa0a	; 0xa0a <vfdPrintStrXY>
    192c:	ff ef       	ldi	r31, 0xFF	; 255
    192e:	2f e7       	ldi	r18, 0x7F	; 127
    1930:	86 e1       	ldi	r24, 0x16	; 22
    1932:	f1 50       	subi	r31, 0x01	; 1
    1934:	20 40       	sbci	r18, 0x00	; 0
    1936:	80 40       	sbci	r24, 0x00	; 0
    1938:	e1 f7       	brne	.-8      	; 0x1932 <uiHelper_SetNumericParam+0x234>
    193a:	00 c0       	rjmp	.+0      	; 0x193c <uiHelper_SetNumericParam+0x23e>
    193c:	00 00       	nop
    193e:	0e 94 f0 05 	call	0xbe0	; 0xbe0 <vfdClr>
    1942:	90 92 44 01 	sts	0x0144, r9
    1946:	80 92 43 01 	sts	0x0143, r8
    194a:	50 92 42 01 	sts	0x0142, r5
    194e:	40 92 41 01 	sts	0x0141, r4
    1952:	81 e0       	ldi	r24, 0x01	; 1
    1954:	80 93 40 01 	sts	0x0140, r24
    1958:	10 92 77 01 	sts	0x0177, r1
    195c:	0b cf       	rjmp	.-490    	; 0x1774 <uiHelper_SetNumericParam+0x76>
    195e:	0e 94 f0 05 	call	0xbe0	; 0xbe0 <vfdClr>
    1962:	02 e0       	ldi	r16, 0x02	; 2
    1964:	20 e0       	ldi	r18, 0x00	; 0
    1966:	40 e0       	ldi	r20, 0x00	; 0
    1968:	60 e1       	ldi	r22, 0x10	; 16
    196a:	91 e0       	ldi	r25, 0x01	; 1
    196c:	e9 16       	cp	r14, r25
    196e:	f1 04       	cpc	r15, r1
    1970:	19 f0       	breq	.+6      	; 0x1978 <uiHelper_SetNumericParam+0x27a>
    1972:	89 ee       	ldi	r24, 0xE9	; 233
    1974:	91 e0       	ldi	r25, 0x01	; 1
    1976:	02 c0       	rjmp	.+4      	; 0x197c <uiHelper_SetNumericParam+0x27e>
    1978:	88 ed       	ldi	r24, 0xD8	; 216
    197a:	91 e0       	ldi	r25, 0x01	; 1
    197c:	0e 94 05 05 	call	0xa0a	; 0xa0a <vfdPrintStrXY>
    1980:	af ef       	ldi	r26, 0xFF	; 255
    1982:	bf e7       	ldi	r27, 0x7F	; 127
    1984:	e6 e1       	ldi	r30, 0x16	; 22
    1986:	a1 50       	subi	r26, 0x01	; 1
    1988:	b0 40       	sbci	r27, 0x00	; 0
    198a:	e0 40       	sbci	r30, 0x00	; 0
    198c:	e1 f7       	brne	.-8      	; 0x1986 <uiHelper_SetNumericParam+0x288>
    198e:	00 c0       	rjmp	.+0      	; 0x1990 <uiHelper_SetNumericParam+0x292>
    1990:	00 00       	nop
    1992:	0e 94 f0 05 	call	0xbe0	; 0xbe0 <vfdClr>
    1996:	0e 94 5b 0f 	call	0x1eb6	; 0x1eb6 <UI_ResetActivity>
    199a:	80 91 41 01 	lds	r24, 0x0141
    199e:	90 91 42 01 	lds	r25, 0x0142
    19a2:	d6 01       	movw	r26, r12
    19a4:	8d 93       	st	X+, r24
    19a6:	9c 93       	st	X, r25
    19a8:	c7 01       	movw	r24, r14
    19aa:	df 91       	pop	r29
    19ac:	cf 91       	pop	r28
    19ae:	1f 91       	pop	r17
    19b0:	0f 91       	pop	r16
    19b2:	ff 90       	pop	r15
    19b4:	ef 90       	pop	r14
    19b6:	df 90       	pop	r13
    19b8:	cf 90       	pop	r12
    19ba:	bf 90       	pop	r11
    19bc:	af 90       	pop	r10
    19be:	9f 90       	pop	r9
    19c0:	8f 90       	pop	r8
    19c2:	7f 90       	pop	r7
    19c4:	6f 90       	pop	r6
    19c6:	5f 90       	pop	r5
    19c8:	4f 90       	pop	r4
    19ca:	3f 90       	pop	r3
    19cc:	08 95       	ret

000019ce <uiAct_SetP0Time>:
    19ce:	0f 93       	push	r16
    19d0:	80 91 61 03 	lds	r24, 0x0361
    19d4:	90 91 62 03 	lds	r25, 0x0362
    19d8:	90 93 85 01 	sts	0x0185, r25
    19dc:	80 93 84 01 	sts	0x0184, r24
    19e0:	02 e3       	ldi	r16, 0x32	; 50
    19e2:	2a ef       	ldi	r18, 0xFA	; 250
    19e4:	30 e0       	ldi	r19, 0x00	; 0
    19e6:	42 e3       	ldi	r20, 0x32	; 50
    19e8:	50 e0       	ldi	r21, 0x00	; 0
    19ea:	60 e1       	ldi	r22, 0x10	; 16
    19ec:	77 e2       	ldi	r23, 0x27	; 39
    19ee:	84 e8       	ldi	r24, 0x84	; 132
    19f0:	91 e0       	ldi	r25, 0x01	; 1
    19f2:	0e 94 7f 0b 	call	0x16fe	; 0x16fe <uiHelper_SetNumericParam>
    19f6:	89 2b       	or	r24, r25
    19f8:	61 f0       	breq	.+24     	; 0x1a12 <uiAct_SetP0Time+0x44>
    19fa:	60 91 84 01 	lds	r22, 0x0184
    19fe:	70 91 85 01 	lds	r23, 0x0185
    1a02:	70 93 62 03 	sts	0x0362, r23
    1a06:	60 93 61 03 	sts	0x0361, r22
    1a0a:	8d e0       	ldi	r24, 0x0D	; 13
    1a0c:	90 e0       	ldi	r25, 0x00	; 0
    1a0e:	0e 94 1d 17 	call	0x2e3a	; 0x2e3a <__eeupd_word_m644>
    1a12:	80 e0       	ldi	r24, 0x00	; 0
    1a14:	90 e0       	ldi	r25, 0x00	; 0
    1a16:	0f 91       	pop	r16
    1a18:	08 95       	ret

00001a1a <uiAct_SetP1Time>:
    1a1a:	0f 93       	push	r16
    1a1c:	80 91 63 03 	lds	r24, 0x0363
    1a20:	90 91 64 03 	lds	r25, 0x0364
    1a24:	90 93 85 01 	sts	0x0185, r25
    1a28:	80 93 84 01 	sts	0x0184, r24
    1a2c:	02 e3       	ldi	r16, 0x32	; 50
    1a2e:	2c e2       	ldi	r18, 0x2C	; 44
    1a30:	31 e0       	ldi	r19, 0x01	; 1
    1a32:	42 e3       	ldi	r20, 0x32	; 50
    1a34:	50 e0       	ldi	r21, 0x00	; 0
    1a36:	60 e1       	ldi	r22, 0x10	; 16
    1a38:	77 e2       	ldi	r23, 0x27	; 39
    1a3a:	84 e8       	ldi	r24, 0x84	; 132
    1a3c:	91 e0       	ldi	r25, 0x01	; 1
    1a3e:	0e 94 7f 0b 	call	0x16fe	; 0x16fe <uiHelper_SetNumericParam>
    1a42:	89 2b       	or	r24, r25
    1a44:	61 f0       	breq	.+24     	; 0x1a5e <uiAct_SetP1Time+0x44>
    1a46:	60 91 84 01 	lds	r22, 0x0184
    1a4a:	70 91 85 01 	lds	r23, 0x0185
    1a4e:	70 93 64 03 	sts	0x0364, r23
    1a52:	60 93 63 03 	sts	0x0363, r22
    1a56:	8b e0       	ldi	r24, 0x0B	; 11
    1a58:	90 e0       	ldi	r25, 0x00	; 0
    1a5a:	0e 94 1d 17 	call	0x2e3a	; 0x2e3a <__eeupd_word_m644>
    1a5e:	80 e0       	ldi	r24, 0x00	; 0
    1a60:	90 e0       	ldi	r25, 0x00	; 0
    1a62:	0f 91       	pop	r16
    1a64:	08 95       	ret

00001a66 <uiAct_SetIPTime>:
    1a66:	0f 93       	push	r16
    1a68:	80 91 65 03 	lds	r24, 0x0365
    1a6c:	90 91 66 03 	lds	r25, 0x0366
    1a70:	90 93 85 01 	sts	0x0185, r25
    1a74:	80 93 84 01 	sts	0x0184, r24
    1a78:	02 e3       	ldi	r16, 0x32	; 50
    1a7a:	24 e6       	ldi	r18, 0x64	; 100
    1a7c:	30 e0       	ldi	r19, 0x00	; 0
    1a7e:	42 e3       	ldi	r20, 0x32	; 50
    1a80:	50 e0       	ldi	r21, 0x00	; 0
    1a82:	68 ee       	ldi	r22, 0xE8	; 232
    1a84:	73 e0       	ldi	r23, 0x03	; 3
    1a86:	84 e8       	ldi	r24, 0x84	; 132
    1a88:	91 e0       	ldi	r25, 0x01	; 1
    1a8a:	0e 94 7f 0b 	call	0x16fe	; 0x16fe <uiHelper_SetNumericParam>
    1a8e:	89 2b       	or	r24, r25
    1a90:	61 f0       	breq	.+24     	; 0x1aaa <uiAct_SetIPTime+0x44>
    1a92:	60 91 84 01 	lds	r22, 0x0184
    1a96:	70 91 85 01 	lds	r23, 0x0185
    1a9a:	70 93 66 03 	sts	0x0366, r23
    1a9e:	60 93 65 03 	sts	0x0365, r22
    1aa2:	89 e0       	ldi	r24, 0x09	; 9
    1aa4:	90 e0       	ldi	r25, 0x00	; 0
    1aa6:	0e 94 1d 17 	call	0x2e3a	; 0x2e3a <__eeupd_word_m644>
    1aaa:	80 e0       	ldi	r24, 0x00	; 0
    1aac:	90 e0       	ldi	r25, 0x00	; 0
    1aae:	0f 91       	pop	r16
    1ab0:	08 95       	ret

00001ab2 <uiAct_SetTrigDlyTime>:
    1ab2:	0f 93       	push	r16
    1ab4:	80 91 65 03 	lds	r24, 0x0365
    1ab8:	90 91 66 03 	lds	r25, 0x0366
    1abc:	90 93 85 01 	sts	0x0185, r25
    1ac0:	80 93 84 01 	sts	0x0184, r24
    1ac4:	02 e3       	ldi	r16, 0x32	; 50
    1ac6:	28 ee       	ldi	r18, 0xE8	; 232
    1ac8:	33 e0       	ldi	r19, 0x03	; 3
    1aca:	42 e3       	ldi	r20, 0x32	; 50
    1acc:	50 e0       	ldi	r21, 0x00	; 0
    1ace:	68 ee       	ldi	r22, 0xE8	; 232
    1ad0:	73 e0       	ldi	r23, 0x03	; 3
    1ad2:	84 e8       	ldi	r24, 0x84	; 132
    1ad4:	91 e0       	ldi	r25, 0x01	; 1
    1ad6:	0e 94 7f 0b 	call	0x16fe	; 0x16fe <uiHelper_SetNumericParam>
    1ada:	89 2b       	or	r24, r25
    1adc:	61 f0       	breq	.+24     	; 0x1af6 <uiAct_SetTrigDlyTime+0x44>
    1ade:	60 91 84 01 	lds	r22, 0x0184
    1ae2:	70 91 85 01 	lds	r23, 0x0185
    1ae6:	70 93 68 03 	sts	0x0368, r23
    1aea:	60 93 67 03 	sts	0x0367, r22
    1aee:	87 e0       	ldi	r24, 0x07	; 7
    1af0:	90 e0       	ldi	r25, 0x00	; 0
    1af2:	0e 94 1d 17 	call	0x2e3a	; 0x2e3a <__eeupd_word_m644>
    1af6:	80 e0       	ldi	r24, 0x00	; 0
    1af8:	90 e0       	ldi	r25, 0x00	; 0
    1afa:	0f 91       	pop	r16
    1afc:	08 95       	ret

00001afe <uiAct_SetTrigThrsh>:
    1afe:	0f 93       	push	r16
    1b00:	80 91 5e 03 	lds	r24, 0x035E
    1b04:	20 e1       	ldi	r18, 0x10	; 16
    1b06:	82 9f       	mul	r24, r18
    1b08:	c0 01       	movw	r24, r0
    1b0a:	11 24       	eor	r1, r1
    1b0c:	90 93 85 01 	sts	0x0185, r25
    1b10:	80 93 84 01 	sts	0x0184, r24
    1b14:	00 e1       	ldi	r16, 0x10	; 16
    1b16:	20 e8       	ldi	r18, 0x80	; 128
    1b18:	3c e0       	ldi	r19, 0x0C	; 12
    1b1a:	40 e4       	ldi	r20, 0x40	; 64
    1b1c:	50 e0       	ldi	r21, 0x00	; 0
    1b1e:	60 e0       	ldi	r22, 0x00	; 0
    1b20:	70 e1       	ldi	r23, 0x10	; 16
    1b22:	84 e8       	ldi	r24, 0x84	; 132
    1b24:	91 e0       	ldi	r25, 0x01	; 1
    1b26:	0e 94 7f 0b 	call	0x16fe	; 0x16fe <uiHelper_SetNumericParam>
    1b2a:	89 2b       	or	r24, r25
    1b2c:	a1 f1       	breq	.+104    	; 0x1b96 <uiAct_SetTrigThrsh+0x98>
    1b2e:	60 91 84 01 	lds	r22, 0x0184
    1b32:	70 91 85 01 	lds	r23, 0x0185
    1b36:	f4 e0       	ldi	r31, 0x04	; 4
    1b38:	76 95       	lsr	r23
    1b3a:	67 95       	ror	r22
    1b3c:	fa 95       	dec	r31
    1b3e:	e1 f7       	brne	.-8      	; 0x1b38 <uiAct_SetTrigThrsh+0x3a>
    1b40:	60 93 5e 03 	sts	0x035E, r22
    1b44:	80 e0       	ldi	r24, 0x00	; 0
    1b46:	90 e0       	ldi	r25, 0x00	; 0
    1b48:	0e 94 0b 17 	call	0x2e16	; 0x2e16 <__eeupd_byte_m644>
    1b4c:	80 91 5e 03 	lds	r24, 0x035E
    1b50:	20 e1       	ldi	r18, 0x10	; 16
    1b52:	82 9f       	mul	r24, r18
    1b54:	c0 01       	movw	r24, r0
    1b56:	11 24       	eor	r1, r1
    1b58:	90 93 38 01 	sts	0x0138, r25
    1b5c:	80 93 37 01 	sts	0x0137, r24
    1b60:	9c 01       	movw	r18, r24
    1b62:	22 27       	eor	r18, r18
    1b64:	3f 70       	andi	r19, 0x0F	; 15
    1b66:	30 93 36 01 	sts	0x0136, r19
    1b6a:	80 93 35 01 	sts	0x0135, r24
    1b6e:	2c 98       	cbi	0x05, 4	; 5
    1b70:	80 91 36 01 	lds	r24, 0x0136
    1b74:	80 61       	ori	r24, 0x10	; 16
    1b76:	8e bd       	out	0x2e, r24	; 46
    1b78:	0d b4       	in	r0, 0x2d	; 45
    1b7a:	07 fe       	sbrs	r0, 7
    1b7c:	fd cf       	rjmp	.-6      	; 0x1b78 <uiAct_SetTrigThrsh+0x7a>
    1b7e:	80 91 35 01 	lds	r24, 0x0135
    1b82:	8e bd       	out	0x2e, r24	; 46
    1b84:	0d b4       	in	r0, 0x2d	; 45
    1b86:	07 fe       	sbrs	r0, 7
    1b88:	fd cf       	rjmp	.-6      	; 0x1b84 <uiAct_SetTrigThrsh+0x86>
    1b8a:	2c 9a       	sbi	0x05, 4	; 5
    1b8c:	2b 9a       	sbi	0x05, 3	; 5
    1b8e:	85 e0       	ldi	r24, 0x05	; 5
    1b90:	8a 95       	dec	r24
    1b92:	f1 f7       	brne	.-4      	; 0x1b90 <uiAct_SetTrigThrsh+0x92>
    1b94:	2b 98       	cbi	0x05, 3	; 5
    1b96:	80 e0       	ldi	r24, 0x00	; 0
    1b98:	90 e0       	ldi	r25, 0x00	; 0
    1b9a:	0f 91       	pop	r16
    1b9c:	08 95       	ret

00001b9e <uiHelper_DisplayNumeric>:
    1b9e:	ef 92       	push	r14
    1ba0:	ff 92       	push	r15
    1ba2:	0f 93       	push	r16
    1ba4:	1f 93       	push	r17
    1ba6:	cf 93       	push	r28
    1ba8:	df 93       	push	r29
    1baa:	7b 01       	movw	r14, r22
    1bac:	14 2f       	mov	r17, r20
    1bae:	fc 01       	movw	r30, r24
    1bb0:	c0 81       	ld	r28, Z
    1bb2:	d1 81       	ldd	r29, Z+1	; 0x01
    1bb4:	d0 93 85 01 	sts	0x0185, r29
    1bb8:	c0 93 84 01 	sts	0x0184, r28
    1bbc:	40 e1       	ldi	r20, 0x10	; 16
    1bbe:	50 e0       	ldi	r21, 0x00	; 0
    1bc0:	60 e2       	ldi	r22, 0x20	; 32
    1bc2:	70 e0       	ldi	r23, 0x00	; 0
    1bc4:	87 e6       	ldi	r24, 0x67	; 103
    1bc6:	91 e0       	ldi	r25, 0x01	; 1
    1bc8:	0e 94 dc 16 	call	0x2db8	; 0x2db8 <memset>
    1bcc:	4a e0       	ldi	r20, 0x0A	; 10
    1bce:	6e e5       	ldi	r22, 0x5E	; 94
    1bd0:	71 e0       	ldi	r23, 0x01	; 1
    1bd2:	ce 01       	movw	r24, r28
    1bd4:	0e 94 e3 16 	call	0x2dc6	; 0x2dc6 <__utoa_ncheck>
    1bd8:	ee e5       	ldi	r30, 0x5E	; 94
    1bda:	f1 e0       	ldi	r31, 0x01	; 1
    1bdc:	01 90       	ld	r0, Z+
    1bde:	00 20       	and	r0, r0
    1be0:	e9 f7       	brne	.-6      	; 0x1bdc <uiHelper_DisplayNumeric+0x3e>
    1be2:	31 97       	sbiw	r30, 0x01	; 1
    1be4:	ee 55       	subi	r30, 0x5E	; 94
    1be6:	f1 40       	sbci	r31, 0x01	; 1
    1be8:	e0 93 3b 01 	sts	0x013B, r30
    1bec:	21 2f       	mov	r18, r17
    1bee:	30 e0       	ldi	r19, 0x00	; 0
    1bf0:	2e 0f       	add	r18, r30
    1bf2:	31 1d       	adc	r19, r1
    1bf4:	35 95       	asr	r19
    1bf6:	27 95       	ror	r18
    1bf8:	31 95       	neg	r19
    1bfa:	21 95       	neg	r18
    1bfc:	31 09       	sbc	r19, r1
    1bfe:	28 5f       	subi	r18, 0xF8	; 248
    1c00:	9e 2f       	mov	r25, r30
    1c02:	32 2f       	mov	r19, r18
    1c04:	3e 0f       	add	r19, r30
    1c06:	82 2f       	mov	r24, r18
    1c08:	e8 2f       	mov	r30, r24
    1c0a:	f0 e0       	ldi	r31, 0x00	; 0
    1c0c:	e9 59       	subi	r30, 0x99	; 153
    1c0e:	fe 4f       	sbci	r31, 0xFE	; 254
    1c10:	a8 2f       	mov	r26, r24
    1c12:	a2 1b       	sub	r26, r18
    1c14:	b0 e0       	ldi	r27, 0x00	; 0
    1c16:	a2 5a       	subi	r26, 0xA2	; 162
    1c18:	be 4f       	sbci	r27, 0xFE	; 254
    1c1a:	4c 91       	ld	r20, X
    1c1c:	40 83       	st	Z, r20
    1c1e:	8f 5f       	subi	r24, 0xFF	; 255
    1c20:	83 13       	cpse	r24, r19
    1c22:	f2 cf       	rjmp	.-28     	; 0x1c08 <uiHelper_DisplayNumeric+0x6a>
    1c24:	10 92 3b 01 	sts	0x013B, r1
    1c28:	80 93 3a 01 	sts	0x013A, r24
    1c2c:	90 93 39 01 	sts	0x0139, r25
    1c30:	0e 94 f0 05 	call	0xbe0	; 0xbe0 <vfdClr>
    1c34:	20 e0       	ldi	r18, 0x00	; 0
    1c36:	40 e0       	ldi	r20, 0x00	; 0
    1c38:	60 e1       	ldi	r22, 0x10	; 16
    1c3a:	87 e6       	ldi	r24, 0x67	; 103
    1c3c:	91 e0       	ldi	r25, 0x01	; 1
    1c3e:	0e 94 3b 05 	call	0xa76	; 0xa76 <vfdCopyStr>
    1c42:	40 91 3a 01 	lds	r20, 0x013A
    1c46:	4f 5f       	subi	r20, 0xFF	; 255
    1c48:	02 e0       	ldi	r16, 0x02	; 2
    1c4a:	20 e0       	ldi	r18, 0x00	; 0
    1c4c:	61 2f       	mov	r22, r17
    1c4e:	c7 01       	movw	r24, r14
    1c50:	0e 94 05 05 	call	0xa0a	; 0xa0a <vfdPrintStrXY>
    1c54:	ff ef       	ldi	r31, 0xFF	; 255
    1c56:	2f ef       	ldi	r18, 0xFF	; 255
    1c58:	89 e5       	ldi	r24, 0x59	; 89
    1c5a:	f1 50       	subi	r31, 0x01	; 1
    1c5c:	20 40       	sbci	r18, 0x00	; 0
    1c5e:	80 40       	sbci	r24, 0x00	; 0
    1c60:	e1 f7       	brne	.-8      	; 0x1c5a <uiHelper_DisplayNumeric+0xbc>
    1c62:	00 c0       	rjmp	.+0      	; 0x1c64 <uiHelper_DisplayNumeric+0xc6>
    1c64:	00 00       	nop
    1c66:	0e 94 5b 0f 	call	0x1eb6	; 0x1eb6 <UI_ResetActivity>
    1c6a:	df 91       	pop	r29
    1c6c:	cf 91       	pop	r28
    1c6e:	1f 91       	pop	r17
    1c70:	0f 91       	pop	r16
    1c72:	ff 90       	pop	r15
    1c74:	ef 90       	pop	r14
    1c76:	0c 94 f0 05 	jmp	0xbe0	; 0xbe0 <vfdClr>

00001c7a <uiAct_ShowP0Time>:
    1c7a:	42 e0       	ldi	r20, 0x02	; 2
    1c7c:	65 ed       	ldi	r22, 0xD5	; 213
    1c7e:	71 e0       	ldi	r23, 0x01	; 1
    1c80:	81 e6       	ldi	r24, 0x61	; 97
    1c82:	93 e0       	ldi	r25, 0x03	; 3
    1c84:	0e 94 cf 0d 	call	0x1b9e	; 0x1b9e <uiHelper_DisplayNumeric>
    1c88:	80 e0       	ldi	r24, 0x00	; 0
    1c8a:	90 e0       	ldi	r25, 0x00	; 0
    1c8c:	08 95       	ret

00001c8e <uiAct_ShowP1Time>:
    1c8e:	42 e0       	ldi	r20, 0x02	; 2
    1c90:	62 ed       	ldi	r22, 0xD2	; 210
    1c92:	71 e0       	ldi	r23, 0x01	; 1
    1c94:	83 e6       	ldi	r24, 0x63	; 99
    1c96:	93 e0       	ldi	r25, 0x03	; 3
    1c98:	0e 94 cf 0d 	call	0x1b9e	; 0x1b9e <uiHelper_DisplayNumeric>
    1c9c:	80 e0       	ldi	r24, 0x00	; 0
    1c9e:	90 e0       	ldi	r25, 0x00	; 0
    1ca0:	08 95       	ret

00001ca2 <uiAct_ShowIPTime>:
    1ca2:	42 e0       	ldi	r20, 0x02	; 2
    1ca4:	6f ec       	ldi	r22, 0xCF	; 207
    1ca6:	71 e0       	ldi	r23, 0x01	; 1
    1ca8:	85 e6       	ldi	r24, 0x65	; 101
    1caa:	93 e0       	ldi	r25, 0x03	; 3
    1cac:	0e 94 cf 0d 	call	0x1b9e	; 0x1b9e <uiHelper_DisplayNumeric>
    1cb0:	80 e0       	ldi	r24, 0x00	; 0
    1cb2:	90 e0       	ldi	r25, 0x00	; 0
    1cb4:	08 95       	ret

00001cb6 <uiAct_ShowTrigDlyTime>:
    1cb6:	42 e0       	ldi	r20, 0x02	; 2
    1cb8:	6c ec       	ldi	r22, 0xCC	; 204
    1cba:	71 e0       	ldi	r23, 0x01	; 1
    1cbc:	87 e6       	ldi	r24, 0x67	; 103
    1cbe:	93 e0       	ldi	r25, 0x03	; 3
    1cc0:	0e 94 cf 0d 	call	0x1b9e	; 0x1b9e <uiHelper_DisplayNumeric>
    1cc4:	80 e0       	ldi	r24, 0x00	; 0
    1cc6:	90 e0       	ldi	r25, 0x00	; 0
    1cc8:	08 95       	ret

00001cca <uiAct_ShowTrigThrsh>:
    1cca:	80 91 5e 03 	lds	r24, 0x035E
    1cce:	20 e1       	ldi	r18, 0x10	; 16
    1cd0:	82 9f       	mul	r24, r18
    1cd2:	c0 01       	movw	r24, r0
    1cd4:	11 24       	eor	r1, r1
    1cd6:	90 93 85 01 	sts	0x0185, r25
    1cda:	80 93 84 01 	sts	0x0184, r24
    1cde:	42 e0       	ldi	r20, 0x02	; 2
    1ce0:	63 ea       	ldi	r22, 0xA3	; 163
    1ce2:	70 e0       	ldi	r23, 0x00	; 0
    1ce4:	84 e8       	ldi	r24, 0x84	; 132
    1ce6:	91 e0       	ldi	r25, 0x01	; 1
    1ce8:	0e 94 cf 0d 	call	0x1b9e	; 0x1b9e <uiHelper_DisplayNumeric>
    1cec:	80 e0       	ldi	r24, 0x00	; 0
    1cee:	90 e0       	ldi	r25, 0x00	; 0
    1cf0:	08 95       	ret

00001cf2 <__vector_5>:
    1cf2:	1f 92       	push	r1
    1cf4:	0f 92       	push	r0
    1cf6:	0f b6       	in	r0, 0x3f	; 63
    1cf8:	0f 92       	push	r0
    1cfa:	11 24       	eor	r1, r1
    1cfc:	8f 93       	push	r24
    1cfe:	9f 93       	push	r25
    1d00:	83 b1       	in	r24, 0x03	; 3
    1d02:	83 70       	andi	r24, 0x03	; 3
    1d04:	80 93 b0 01 	sts	0x01B0, r24
    1d08:	81 e0       	ldi	r24, 0x01	; 1
    1d0a:	80 93 b3 01 	sts	0x01B3, r24
    1d0e:	80 91 b1 01 	lds	r24, 0x01B1
    1d12:	91 e0       	ldi	r25, 0x01	; 1
    1d14:	98 0f       	add	r25, r24
    1d16:	90 93 b1 01 	sts	0x01B1, r25
    1d1a:	90 91 3b 03 	lds	r25, 0x033B
    1d1e:	98 17       	cp	r25, r24
    1d20:	38 f4       	brcc	.+14     	; 0x1d30 <__vector_5+0x3e>
    1d22:	80 91 b2 01 	lds	r24, 0x01B2
    1d26:	8f 5f       	subi	r24, 0xFF	; 255
    1d28:	80 93 b2 01 	sts	0x01B2, r24
    1d2c:	10 92 b1 01 	sts	0x01B1, r1
    1d30:	9f 91       	pop	r25
    1d32:	8f 91       	pop	r24
    1d34:	0f 90       	pop	r0
    1d36:	0f be       	out	0x3f, r0	; 63
    1d38:	0f 90       	pop	r0
    1d3a:	1f 90       	pop	r1
    1d3c:	18 95       	reti

00001d3e <__vector_4>:
    1d3e:	1f 92       	push	r1
    1d40:	0f 92       	push	r0
    1d42:	0f b6       	in	r0, 0x3f	; 63
    1d44:	0f 92       	push	r0
    1d46:	11 24       	eor	r1, r1
    1d48:	0f 90       	pop	r0
    1d4a:	0f be       	out	0x3f, r0	; 63
    1d4c:	0f 90       	pop	r0
    1d4e:	1f 90       	pop	r1
    1d50:	18 95       	reti

00001d52 <uiObj_Register>:
    1d52:	cf 93       	push	r28
    1d54:	df 93       	push	r29
    1d56:	fc 01       	movw	r30, r24
    1d58:	80 91 08 01 	lds	r24, 0x0108
    1d5c:	96 e1       	ldi	r25, 0x16	; 22
    1d5e:	89 9f       	mul	r24, r25
    1d60:	e0 01       	movw	r28, r0
    1d62:	11 24       	eor	r1, r1
    1d64:	cf 53       	subi	r28, 0x3F	; 63
    1d66:	de 4f       	sbci	r29, 0xFE	; 254
    1d68:	96 e1       	ldi	r25, 0x16	; 22
    1d6a:	de 01       	movw	r26, r28
    1d6c:	01 90       	ld	r0, Z+
    1d6e:	0d 92       	st	X+, r0
    1d70:	9a 95       	dec	r25
    1d72:	e1 f7       	brne	.-8      	; 0x1d6c <uiObj_Register+0x1a>
    1d74:	8c 8b       	std	Y+20, r24	; 0x14
    1d76:	91 e0       	ldi	r25, 0x01	; 1
    1d78:	98 0f       	add	r25, r24
    1d7a:	90 93 08 01 	sts	0x0108, r25
    1d7e:	df 91       	pop	r29
    1d80:	cf 91       	pop	r28
    1d82:	08 95       	ret

00001d84 <uiObj_GetObject>:
    1d84:	80 31       	cpi	r24, 0x10	; 16
    1d86:	58 f4       	brcc	.+22     	; 0x1d9e <uiObj_GetObject+0x1a>
    1d88:	90 91 08 01 	lds	r25, 0x0108
    1d8c:	89 17       	cp	r24, r25
    1d8e:	38 f4       	brcc	.+14     	; 0x1d9e <uiObj_GetObject+0x1a>
    1d90:	26 e1       	ldi	r18, 0x16	; 22
    1d92:	82 9f       	mul	r24, r18
    1d94:	c0 01       	movw	r24, r0
    1d96:	11 24       	eor	r1, r1
    1d98:	8f 53       	subi	r24, 0x3F	; 63
    1d9a:	9e 4f       	sbci	r25, 0xFE	; 254
    1d9c:	08 95       	ret
    1d9e:	80 e0       	ldi	r24, 0x00	; 0
    1da0:	90 e0       	ldi	r25, 0x00	; 0
    1da2:	08 95       	ret

00001da4 <uiObj_Activate>:
    1da4:	8f 3f       	cpi	r24, 0xFF	; 255
    1da6:	41 f0       	breq	.+16     	; 0x1db8 <uiObj_Activate+0x14>
    1da8:	90 91 08 01 	lds	r25, 0x0108
    1dac:	89 17       	cp	r24, r25
    1dae:	20 f4       	brcc	.+8      	; 0x1db8 <uiObj_Activate+0x14>
    1db0:	80 93 07 01 	sts	0x0107, r24
    1db4:	90 e0       	ldi	r25, 0x00	; 0
    1db6:	08 95       	ret
    1db8:	8f ef       	ldi	r24, 0xFF	; 255
    1dba:	9f ef       	ldi	r25, 0xFF	; 255
    1dbc:	08 95       	ret

00001dbe <uiObj_DrawPrev>:
    1dbe:	0f 93       	push	r16
    1dc0:	cf 93       	push	r28
    1dc2:	df 93       	push	r29
    1dc4:	8f 3f       	cpi	r24, 0xFF	; 255
    1dc6:	11 f1       	breq	.+68     	; 0x1e0c <uiObj_DrawPrev+0x4e>
    1dc8:	90 91 08 01 	lds	r25, 0x0108
    1dcc:	89 17       	cp	r24, r25
    1dce:	f0 f4       	brcc	.+60     	; 0x1e0c <uiObj_DrawPrev+0x4e>
    1dd0:	96 e1       	ldi	r25, 0x16	; 22
    1dd2:	89 9f       	mul	r24, r25
    1dd4:	f0 01       	movw	r30, r0
    1dd6:	11 24       	eor	r1, r1
    1dd8:	ef 53       	subi	r30, 0x3F	; 63
    1dda:	fe 4f       	sbci	r31, 0xFE	; 254
    1ddc:	80 81       	ld	r24, Z
    1dde:	0e 94 c2 0e 	call	0x1d84	; 0x1d84 <uiObj_GetObject>
    1de2:	ec 01       	movw	r28, r24
    1de4:	00 97       	sbiw	r24, 0x00	; 0
    1de6:	a9 f0       	breq	.+42     	; 0x1e12 <uiObj_DrawPrev+0x54>
    1de8:	00 e0       	ldi	r16, 0x00	; 0
    1dea:	20 e0       	ldi	r18, 0x00	; 0
    1dec:	40 e0       	ldi	r20, 0x00	; 0
    1dee:	68 89       	ldd	r22, Y+16	; 0x10
    1df0:	8a 81       	ldd	r24, Y+2	; 0x02
    1df2:	9b 81       	ldd	r25, Y+3	; 0x03
    1df4:	0e 94 05 05 	call	0xa0a	; 0xa0a <vfdPrintStrXY>
    1df8:	21 e0       	ldi	r18, 0x01	; 1
    1dfa:	41 e0       	ldi	r20, 0x01	; 1
    1dfc:	69 89       	ldd	r22, Y+17	; 0x11
    1dfe:	8c 81       	ldd	r24, Y+4	; 0x04
    1e00:	9d 81       	ldd	r25, Y+5	; 0x05
    1e02:	0e 94 05 05 	call	0xa0a	; 0xa0a <vfdPrintStrXY>
    1e06:	81 e0       	ldi	r24, 0x01	; 1
    1e08:	90 e0       	ldi	r25, 0x00	; 0
    1e0a:	05 c0       	rjmp	.+10     	; 0x1e16 <uiObj_DrawPrev+0x58>
    1e0c:	8f ef       	ldi	r24, 0xFF	; 255
    1e0e:	9f ef       	ldi	r25, 0xFF	; 255
    1e10:	02 c0       	rjmp	.+4      	; 0x1e16 <uiObj_DrawPrev+0x58>
    1e12:	8e ef       	ldi	r24, 0xFE	; 254
    1e14:	9f ef       	ldi	r25, 0xFF	; 255
    1e16:	df 91       	pop	r29
    1e18:	cf 91       	pop	r28
    1e1a:	0f 91       	pop	r16
    1e1c:	08 95       	ret

00001e1e <uiObj_DrawNext>:
    1e1e:	0f 93       	push	r16
    1e20:	cf 93       	push	r28
    1e22:	df 93       	push	r29
    1e24:	8f 3f       	cpi	r24, 0xFF	; 255
    1e26:	11 f1       	breq	.+68     	; 0x1e6c <uiObj_DrawNext+0x4e>
    1e28:	90 91 08 01 	lds	r25, 0x0108
    1e2c:	89 17       	cp	r24, r25
    1e2e:	f0 f4       	brcc	.+60     	; 0x1e6c <uiObj_DrawNext+0x4e>
    1e30:	96 e1       	ldi	r25, 0x16	; 22
    1e32:	89 9f       	mul	r24, r25
    1e34:	f0 01       	movw	r30, r0
    1e36:	11 24       	eor	r1, r1
    1e38:	ef 53       	subi	r30, 0x3F	; 63
    1e3a:	fe 4f       	sbci	r31, 0xFE	; 254
    1e3c:	81 81       	ldd	r24, Z+1	; 0x01
    1e3e:	0e 94 c2 0e 	call	0x1d84	; 0x1d84 <uiObj_GetObject>
    1e42:	ec 01       	movw	r28, r24
    1e44:	00 97       	sbiw	r24, 0x00	; 0
    1e46:	a9 f0       	breq	.+42     	; 0x1e72 <uiObj_DrawNext+0x54>
    1e48:	01 e0       	ldi	r16, 0x01	; 1
    1e4a:	20 e0       	ldi	r18, 0x00	; 0
    1e4c:	40 e0       	ldi	r20, 0x00	; 0
    1e4e:	68 89       	ldd	r22, Y+16	; 0x10
    1e50:	8a 81       	ldd	r24, Y+2	; 0x02
    1e52:	9b 81       	ldd	r25, Y+3	; 0x03
    1e54:	0e 94 05 05 	call	0xa0a	; 0xa0a <vfdPrintStrXY>
    1e58:	21 e0       	ldi	r18, 0x01	; 1
    1e5a:	41 e0       	ldi	r20, 0x01	; 1
    1e5c:	69 89       	ldd	r22, Y+17	; 0x11
    1e5e:	8c 81       	ldd	r24, Y+4	; 0x04
    1e60:	9d 81       	ldd	r25, Y+5	; 0x05
    1e62:	0e 94 05 05 	call	0xa0a	; 0xa0a <vfdPrintStrXY>
    1e66:	81 e0       	ldi	r24, 0x01	; 1
    1e68:	90 e0       	ldi	r25, 0x00	; 0
    1e6a:	05 c0       	rjmp	.+10     	; 0x1e76 <uiObj_DrawNext+0x58>
    1e6c:	8f ef       	ldi	r24, 0xFF	; 255
    1e6e:	9f ef       	ldi	r25, 0xFF	; 255
    1e70:	02 c0       	rjmp	.+4      	; 0x1e76 <uiObj_DrawNext+0x58>
    1e72:	8e ef       	ldi	r24, 0xFE	; 254
    1e74:	9f ef       	ldi	r25, 0xFF	; 255
    1e76:	df 91       	pop	r29
    1e78:	cf 91       	pop	r28
    1e7a:	0f 91       	pop	r16
    1e7c:	08 95       	ret

00001e7e <UI_Init>:
    1e7e:	82 e0       	ldi	r24, 0x02	; 2
    1e80:	80 93 3b 03 	sts	0x033B, r24
    1e84:	ec e6       	ldi	r30, 0x6C	; 108
    1e86:	f0 e0       	ldi	r31, 0x00	; 0
    1e88:	80 81       	ld	r24, Z
    1e8a:	82 60       	ori	r24, 0x02	; 2
    1e8c:	80 83       	st	Z, r24
    1e8e:	e8 e6       	ldi	r30, 0x68	; 104
    1e90:	f0 e0       	ldi	r31, 0x00	; 0
    1e92:	80 81       	ld	r24, Z
    1e94:	82 60       	ori	r24, 0x02	; 2
    1e96:	80 83       	st	Z, r24
    1e98:	0e 94 c7 02 	call	0x58e	; 0x58e <GetSysTicks>
    1e9c:	60 59       	subi	r22, 0x90	; 144
    1e9e:	78 4e       	sbci	r23, 0xE8	; 232
    1ea0:	8f 4f       	sbci	r24, 0xFF	; 255
    1ea2:	9f 4f       	sbci	r25, 0xFF	; 255
    1ea4:	60 93 37 03 	sts	0x0337, r22
    1ea8:	70 93 38 03 	sts	0x0338, r23
    1eac:	80 93 39 03 	sts	0x0339, r24
    1eb0:	90 93 3a 03 	sts	0x033A, r25
    1eb4:	08 95       	ret

00001eb6 <UI_ResetActivity>:
    1eb6:	0e 94 c7 02 	call	0x58e	; 0x58e <GetSysTicks>
    1eba:	60 59       	subi	r22, 0x90	; 144
    1ebc:	78 4e       	sbci	r23, 0xE8	; 232
    1ebe:	8f 4f       	sbci	r24, 0xFF	; 255
    1ec0:	9f 4f       	sbci	r25, 0xFF	; 255
    1ec2:	60 93 37 03 	sts	0x0337, r22
    1ec6:	70 93 38 03 	sts	0x0338, r23
    1eca:	80 93 39 03 	sts	0x0339, r24
    1ece:	90 93 3a 03 	sts	0x033A, r25
    1ed2:	08 95       	ret

00001ed4 <UI_GetActivity>:
    1ed4:	80 91 09 01 	lds	r24, 0x0109
    1ed8:	08 95       	ret

00001eda <UI_ScreenSaver>:
    1eda:	0f 93       	push	r16
    1edc:	1f 93       	push	r17
    1ede:	0e 94 c7 02 	call	0x58e	; 0x58e <GetSysTicks>
    1ee2:	00 91 ac 01 	lds	r16, 0x01AC
    1ee6:	10 91 ad 01 	lds	r17, 0x01AD
    1eea:	20 91 ae 01 	lds	r18, 0x01AE
    1eee:	30 91 af 01 	lds	r19, 0x01AF
    1ef2:	06 17       	cp	r16, r22
    1ef4:	17 07       	cpc	r17, r23
    1ef6:	28 07       	cpc	r18, r24
    1ef8:	39 07       	cpc	r19, r25
    1efa:	c0 f5       	brcc	.+112    	; 0x1f6c <UI_ScreenSaver+0x92>
    1efc:	80 91 ab 01 	lds	r24, 0x01AB
    1f00:	90 91 a9 01 	lds	r25, 0x01A9
    1f04:	89 0f       	add	r24, r25
    1f06:	80 93 ab 01 	sts	0x01AB, r24
    1f0a:	0e 94 f0 05 	call	0xbe0	; 0xbe0 <vfdClr>
    1f0e:	60 e0       	ldi	r22, 0x00	; 0
    1f10:	80 91 ab 01 	lds	r24, 0x01AB
    1f14:	0e 94 c3 04 	call	0x986	; 0x986 <vfdGotoXY>
    1f18:	8f ef       	ldi	r24, 0xFF	; 255
    1f1a:	0e 94 aa 04 	call	0x954	; 0x954 <vfdSendData>
    1f1e:	90 91 ab 01 	lds	r25, 0x01AB
    1f22:	61 e0       	ldi	r22, 0x01	; 1
    1f24:	8f e0       	ldi	r24, 0x0F	; 15
    1f26:	89 1b       	sub	r24, r25
    1f28:	0e 94 c3 04 	call	0x986	; 0x986 <vfdGotoXY>
    1f2c:	8f ef       	ldi	r24, 0xFF	; 255
    1f2e:	0e 94 aa 04 	call	0x954	; 0x954 <vfdSendData>
    1f32:	80 91 ab 01 	lds	r24, 0x01AB
    1f36:	8f 30       	cpi	r24, 0x0F	; 15
    1f38:	19 f4       	brne	.+6      	; 0x1f40 <UI_ScreenSaver+0x66>
    1f3a:	8f ef       	ldi	r24, 0xFF	; 255
    1f3c:	9f ef       	ldi	r25, 0xFF	; 255
    1f3e:	04 c0       	rjmp	.+8      	; 0x1f48 <UI_ScreenSaver+0x6e>
    1f40:	81 11       	cpse	r24, r1
    1f42:	06 c0       	rjmp	.+12     	; 0x1f50 <UI_ScreenSaver+0x76>
    1f44:	81 e0       	ldi	r24, 0x01	; 1
    1f46:	90 e0       	ldi	r25, 0x00	; 0
    1f48:	90 93 aa 01 	sts	0x01AA, r25
    1f4c:	80 93 a9 01 	sts	0x01A9, r24
    1f50:	0e 94 c7 02 	call	0x58e	; 0x58e <GetSysTicks>
    1f54:	6b 5f       	subi	r22, 0xFB	; 251
    1f56:	7f 4f       	sbci	r23, 0xFF	; 255
    1f58:	8f 4f       	sbci	r24, 0xFF	; 255
    1f5a:	9f 4f       	sbci	r25, 0xFF	; 255
    1f5c:	60 93 ac 01 	sts	0x01AC, r22
    1f60:	70 93 ad 01 	sts	0x01AD, r23
    1f64:	80 93 ae 01 	sts	0x01AE, r24
    1f68:	90 93 af 01 	sts	0x01AF, r25
    1f6c:	1f 91       	pop	r17
    1f6e:	0f 91       	pop	r16
    1f70:	08 95       	ret

00001f72 <UI_ProcessInput>:
    1f72:	cf 92       	push	r12
    1f74:	df 92       	push	r13
    1f76:	ef 92       	push	r14
    1f78:	ff 92       	push	r15
    1f7a:	0f 93       	push	r16
    1f7c:	1f 93       	push	r17
    1f7e:	cf 93       	push	r28
    1f80:	df 93       	push	r29
    1f82:	ec 01       	movw	r28, r24
    1f84:	0e 94 c7 02 	call	0x58e	; 0x58e <GetSysTicks>
    1f88:	60 93 a5 01 	sts	0x01A5, r22
    1f8c:	70 93 a6 01 	sts	0x01A6, r23
    1f90:	80 93 a7 01 	sts	0x01A7, r24
    1f94:	90 93 a8 01 	sts	0x01A8, r25
    1f98:	20 91 b3 01 	lds	r18, 0x01B3
    1f9c:	22 23       	and	r18, r18
    1f9e:	a9 f0       	breq	.+42     	; 0x1fca <UI_ProcessInput+0x58>
    1fa0:	10 92 b3 01 	sts	0x01B3, r1
    1fa4:	20 91 b0 01 	lds	r18, 0x01B0
    1fa8:	20 ff       	sbrs	r18, 0
    1faa:	0f c0       	rjmp	.+30     	; 0x1fca <UI_ProcessInput+0x58>
    1fac:	20 91 b0 01 	lds	r18, 0x01B0
    1fb0:	21 ff       	sbrs	r18, 1
    1fb2:	03 c0       	rjmp	.+6      	; 0x1fba <UI_ProcessInput+0x48>
    1fb4:	21 e0       	ldi	r18, 0x01	; 1
    1fb6:	2b 87       	std	Y+11, r18	; 0x0b
    1fb8:	01 c0       	rjmp	.+2      	; 0x1fbc <UI_ProcessInput+0x4a>
    1fba:	1b 86       	std	Y+11, r1	; 0x0b
    1fbc:	20 91 b2 01 	lds	r18, 0x01B2
    1fc0:	2c 87       	std	Y+12, r18	; 0x0c
    1fc2:	21 e0       	ldi	r18, 0x01	; 1
    1fc4:	2a 87       	std	Y+10, r18	; 0x0a
    1fc6:	10 92 b2 01 	sts	0x01B2, r1
    1fca:	40 b1       	in	r20, 0x00	; 0
    1fcc:	48 71       	andi	r20, 0x18	; 24
    1fce:	4d 83       	std	Y+5, r20	; 0x05
    1fd0:	5c 81       	ldd	r21, Y+4	; 0x04
    1fd2:	45 17       	cp	r20, r21
    1fd4:	09 f4       	brne	.+2      	; 0x1fd8 <UI_ProcessInput+0x66>
    1fd6:	75 c0       	rjmp	.+234    	; 0x20c2 <UI_ProcessInput+0x150>
    1fd8:	0e 81       	ldd	r16, Y+6	; 0x06
    1fda:	1f 81       	ldd	r17, Y+7	; 0x07
    1fdc:	28 85       	ldd	r18, Y+8	; 0x08
    1fde:	39 85       	ldd	r19, Y+9	; 0x09
    1fe0:	6b 01       	movw	r12, r22
    1fe2:	7c 01       	movw	r14, r24
    1fe4:	c0 1a       	sub	r12, r16
    1fe6:	d1 0a       	sbc	r13, r17
    1fe8:	e2 0a       	sbc	r14, r18
    1fea:	f3 0a       	sbc	r15, r19
    1fec:	97 01       	movw	r18, r14
    1fee:	86 01       	movw	r16, r12
    1ff0:	c0 92 a1 01 	sts	0x01A1, r12
    1ff4:	d0 92 a2 01 	sts	0x01A2, r13
    1ff8:	e0 92 a3 01 	sts	0x01A3, r14
    1ffc:	f0 92 a4 01 	sts	0x01A4, r15
    2000:	6e 83       	std	Y+6, r22	; 0x06
    2002:	7f 83       	std	Y+7, r23	; 0x07
    2004:	88 87       	std	Y+8, r24	; 0x08
    2006:	99 87       	std	Y+9, r25	; 0x09
    2008:	58 30       	cpi	r21, 0x08	; 8
    200a:	41 f1       	breq	.+80     	; 0x205c <UI_ProcessInput+0xea>
    200c:	18 f4       	brcc	.+6      	; 0x2014 <UI_ProcessInput+0xa2>
    200e:	55 23       	and	r21, r21
    2010:	59 f0       	breq	.+22     	; 0x2028 <UI_ProcessInput+0xb6>
    2012:	57 c0       	rjmp	.+174    	; 0x20c2 <UI_ProcessInput+0x150>
    2014:	50 31       	cpi	r21, 0x10	; 16
    2016:	d9 f1       	breq	.+118    	; 0x208e <UI_ProcessInput+0x11c>
    2018:	58 31       	cpi	r21, 0x18	; 24
    201a:	09 f0       	breq	.+2      	; 0x201e <UI_ProcessInput+0xac>
    201c:	52 c0       	rjmp	.+164    	; 0x20c2 <UI_ProcessInput+0x150>
    201e:	19 82       	std	Y+1, r1	; 0x01
    2020:	1a 82       	std	Y+2, r1	; 0x02
    2022:	1b 82       	std	Y+3, r1	; 0x03
    2024:	18 82       	st	Y, r1
    2026:	4d c0       	rjmp	.+154    	; 0x20c2 <UI_ProcessInput+0x150>
    2028:	1b 82       	std	Y+3, r1	; 0x03
    202a:	05 30       	cpi	r16, 0x05	; 5
    202c:	11 05       	cpc	r17, r1
    202e:	21 05       	cpc	r18, r1
    2030:	31 05       	cpc	r19, r1
    2032:	08 f4       	brcc	.+2      	; 0x2036 <UI_ProcessInput+0xc4>
    2034:	44 c0       	rjmp	.+136    	; 0x20be <UI_ProcessInput+0x14c>
    2036:	81 e0       	ldi	r24, 0x01	; 1
    2038:	8b 83       	std	Y+3, r24	; 0x03
    203a:	08 3c       	cpi	r16, 0xC8	; 200
    203c:	11 05       	cpc	r17, r1
    203e:	21 05       	cpc	r18, r1
    2040:	31 05       	cpc	r19, r1
    2042:	e8 f1       	brcs	.+122    	; 0x20be <UI_ProcessInput+0x14c>
    2044:	80 e9       	ldi	r24, 0x90	; 144
    2046:	c8 16       	cp	r12, r24
    2048:	81 e0       	ldi	r24, 0x01	; 1
    204a:	d8 06       	cpc	r13, r24
    204c:	e1 04       	cpc	r14, r1
    204e:	f1 04       	cpc	r15, r1
    2050:	10 f4       	brcc	.+4      	; 0x2056 <UI_ProcessInput+0xe4>
    2052:	82 e0       	ldi	r24, 0x02	; 2
    2054:	01 c0       	rjmp	.+2      	; 0x2058 <UI_ProcessInput+0xe6>
    2056:	83 e0       	ldi	r24, 0x03	; 3
    2058:	8b 83       	std	Y+3, r24	; 0x03
    205a:	31 c0       	rjmp	.+98     	; 0x20be <UI_ProcessInput+0x14c>
    205c:	1a 82       	std	Y+2, r1	; 0x02
    205e:	05 30       	cpi	r16, 0x05	; 5
    2060:	11 05       	cpc	r17, r1
    2062:	21 05       	cpc	r18, r1
    2064:	31 05       	cpc	r19, r1
    2066:	58 f1       	brcs	.+86     	; 0x20be <UI_ProcessInput+0x14c>
    2068:	81 e0       	ldi	r24, 0x01	; 1
    206a:	8a 83       	std	Y+2, r24	; 0x02
    206c:	08 3c       	cpi	r16, 0xC8	; 200
    206e:	11 05       	cpc	r17, r1
    2070:	21 05       	cpc	r18, r1
    2072:	31 05       	cpc	r19, r1
    2074:	20 f1       	brcs	.+72     	; 0x20be <UI_ProcessInput+0x14c>
    2076:	80 e9       	ldi	r24, 0x90	; 144
    2078:	c8 16       	cp	r12, r24
    207a:	81 e0       	ldi	r24, 0x01	; 1
    207c:	d8 06       	cpc	r13, r24
    207e:	e1 04       	cpc	r14, r1
    2080:	f1 04       	cpc	r15, r1
    2082:	10 f4       	brcc	.+4      	; 0x2088 <UI_ProcessInput+0x116>
    2084:	82 e0       	ldi	r24, 0x02	; 2
    2086:	01 c0       	rjmp	.+2      	; 0x208a <UI_ProcessInput+0x118>
    2088:	83 e0       	ldi	r24, 0x03	; 3
    208a:	8a 83       	std	Y+2, r24	; 0x02
    208c:	18 c0       	rjmp	.+48     	; 0x20be <UI_ProcessInput+0x14c>
    208e:	19 82       	std	Y+1, r1	; 0x01
    2090:	05 30       	cpi	r16, 0x05	; 5
    2092:	11 05       	cpc	r17, r1
    2094:	21 05       	cpc	r18, r1
    2096:	31 05       	cpc	r19, r1
    2098:	90 f0       	brcs	.+36     	; 0x20be <UI_ProcessInput+0x14c>
    209a:	81 e0       	ldi	r24, 0x01	; 1
    209c:	89 83       	std	Y+1, r24	; 0x01
    209e:	08 3c       	cpi	r16, 0xC8	; 200
    20a0:	11 05       	cpc	r17, r1
    20a2:	21 05       	cpc	r18, r1
    20a4:	31 05       	cpc	r19, r1
    20a6:	58 f0       	brcs	.+22     	; 0x20be <UI_ProcessInput+0x14c>
    20a8:	80 e9       	ldi	r24, 0x90	; 144
    20aa:	c8 16       	cp	r12, r24
    20ac:	81 e0       	ldi	r24, 0x01	; 1
    20ae:	d8 06       	cpc	r13, r24
    20b0:	e1 04       	cpc	r14, r1
    20b2:	f1 04       	cpc	r15, r1
    20b4:	10 f4       	brcc	.+4      	; 0x20ba <UI_ProcessInput+0x148>
    20b6:	82 e0       	ldi	r24, 0x02	; 2
    20b8:	01 c0       	rjmp	.+2      	; 0x20bc <UI_ProcessInput+0x14a>
    20ba:	83 e0       	ldi	r24, 0x03	; 3
    20bc:	89 83       	std	Y+1, r24	; 0x01
    20be:	81 e0       	ldi	r24, 0x01	; 1
    20c0:	88 83       	st	Y, r24
    20c2:	4c 83       	std	Y+4, r20	; 0x04
    20c4:	df 91       	pop	r29
    20c6:	cf 91       	pop	r28
    20c8:	1f 91       	pop	r17
    20ca:	0f 91       	pop	r16
    20cc:	ff 90       	pop	r15
    20ce:	ef 90       	pop	r14
    20d0:	df 90       	pop	r13
    20d2:	cf 90       	pop	r12
    20d4:	08 95       	ret

000020d6 <UI_ResetInputState>:
    20d6:	fc 01       	movw	r30, r24
    20d8:	12 86       	std	Z+10, r1	; 0x0a
    20da:	14 86       	std	Z+12, r1	; 0x0c
    20dc:	10 82       	st	Z, r1
    20de:	11 82       	std	Z+1, r1	; 0x01
    20e0:	12 82       	std	Z+2, r1	; 0x02
    20e2:	13 82       	std	Z+3, r1	; 0x03
    20e4:	08 95       	ret

000020e6 <UI_Status>:
    20e6:	0f 93       	push	r16
    20e8:	cf 93       	push	r28
    20ea:	c8 2f       	mov	r28, r24
    20ec:	0e 94 6b 04 	call	0x8d6	; 0x8d6 <GetActiveWeldState>
    20f0:	80 93 98 01 	sts	0x0198, r24
    20f4:	0e 94 a0 16 	call	0x2d40	; 0x2d40 <IsWeldTriggered>
    20f8:	80 93 97 01 	sts	0x0197, r24
    20fc:	90 91 98 01 	lds	r25, 0x0198
    2100:	80 91 96 01 	lds	r24, 0x0196
    2104:	98 13       	cpse	r25, r24
    2106:	03 c0       	rjmp	.+6      	; 0x210e <UI_Status+0x28>
    2108:	cc 23       	and	r28, r28
    210a:	09 f4       	brne	.+2      	; 0x210e <UI_Status+0x28>
    210c:	b5 c0       	rjmp	.+362    	; 0x2278 <UI_Status+0x192>
    210e:	02 e0       	ldi	r16, 0x02	; 2
    2110:	20 e0       	ldi	r18, 0x00	; 0
    2112:	40 e0       	ldi	r20, 0x00	; 0
    2114:	60 e1       	ldi	r22, 0x10	; 16
    2116:	81 e2       	ldi	r24, 0x21	; 33
    2118:	94 e0       	ldi	r25, 0x04	; 4
    211a:	0e 94 05 05 	call	0xa0a	; 0xa0a <vfdPrintStrXY>
    211e:	80 91 6a 03 	lds	r24, 0x036A
    2122:	81 11       	cpse	r24, r1
    2124:	2a c0       	rjmp	.+84     	; 0x217a <UI_Status+0x94>
    2126:	80 91 98 01 	lds	r24, 0x0198
    212a:	84 30       	cpi	r24, 0x04	; 4
    212c:	39 f4       	brne	.+14     	; 0x213c <UI_Status+0x56>
    212e:	21 e0       	ldi	r18, 0x01	; 1
    2130:	40 e0       	ldi	r20, 0x00	; 0
    2132:	60 e1       	ldi	r22, 0x10	; 16
    2134:	80 e1       	ldi	r24, 0x10	; 16
    2136:	94 e0       	ldi	r25, 0x04	; 4
    2138:	0e 94 05 05 	call	0xa0a	; 0xa0a <vfdPrintStrXY>
    213c:	80 91 98 01 	lds	r24, 0x0198
    2140:	81 11       	cpse	r24, r1
    2142:	0f c0       	rjmp	.+30     	; 0x2162 <UI_Status+0x7c>
    2144:	0e 94 a3 16 	call	0x2d46	; 0x2d46 <IsWeldEnabled>
    2148:	02 e0       	ldi	r16, 0x02	; 2
    214a:	21 e0       	ldi	r18, 0x01	; 1
    214c:	40 e0       	ldi	r20, 0x00	; 0
    214e:	60 e1       	ldi	r22, 0x10	; 16
    2150:	88 23       	and	r24, r24
    2152:	19 f0       	breq	.+6      	; 0x215a <UI_Status+0x74>
    2154:	8f ef       	ldi	r24, 0xFF	; 255
    2156:	93 e0       	ldi	r25, 0x03	; 3
    2158:	02 c0       	rjmp	.+4      	; 0x215e <UI_Status+0x78>
    215a:	8e ee       	ldi	r24, 0xEE	; 238
    215c:	93 e0       	ldi	r25, 0x03	; 3
    215e:	0e 94 05 05 	call	0xa0a	; 0xa0a <vfdPrintStrXY>
    2162:	80 91 98 01 	lds	r24, 0x0198
    2166:	85 30       	cpi	r24, 0x05	; 5
    2168:	41 f4       	brne	.+16     	; 0x217a <UI_Status+0x94>
    216a:	02 e0       	ldi	r16, 0x02	; 2
    216c:	21 e0       	ldi	r18, 0x01	; 1
    216e:	40 e0       	ldi	r20, 0x00	; 0
    2170:	60 e1       	ldi	r22, 0x10	; 16
    2172:	8d ed       	ldi	r24, 0xDD	; 221
    2174:	93 e0       	ldi	r25, 0x03	; 3
    2176:	0e 94 05 05 	call	0xa0a	; 0xa0a <vfdPrintStrXY>
    217a:	80 91 6a 03 	lds	r24, 0x036A
    217e:	81 30       	cpi	r24, 0x01	; 1
    2180:	81 f5       	brne	.+96     	; 0x21e2 <UI_Status+0xfc>
    2182:	80 91 98 01 	lds	r24, 0x0198
    2186:	81 11       	cpse	r24, r1
    2188:	1f c0       	rjmp	.+62     	; 0x21c8 <UI_Status+0xe2>
    218a:	0e 94 a3 16 	call	0x2d46	; 0x2d46 <IsWeldEnabled>
    218e:	88 23       	and	r24, r24
    2190:	a1 f0       	breq	.+40     	; 0x21ba <UI_Status+0xd4>
    2192:	80 91 97 01 	lds	r24, 0x0197
    2196:	88 23       	and	r24, r24
    2198:	49 f0       	breq	.+18     	; 0x21ac <UI_Status+0xc6>
    219a:	83 30       	cpi	r24, 0x03	; 3
    219c:	10 f5       	brcc	.+68     	; 0x21e2 <UI_Status+0xfc>
    219e:	02 e0       	ldi	r16, 0x02	; 2
    21a0:	21 e0       	ldi	r18, 0x01	; 1
    21a2:	40 e0       	ldi	r20, 0x00	; 0
    21a4:	60 e1       	ldi	r22, 0x10	; 16
    21a6:	8b eb       	ldi	r24, 0xBB	; 187
    21a8:	93 e0       	ldi	r25, 0x03	; 3
    21aa:	19 c0       	rjmp	.+50     	; 0x21de <UI_Status+0xf8>
    21ac:	02 e0       	ldi	r16, 0x02	; 2
    21ae:	21 e0       	ldi	r18, 0x01	; 1
    21b0:	40 e0       	ldi	r20, 0x00	; 0
    21b2:	60 e1       	ldi	r22, 0x10	; 16
    21b4:	8c ec       	ldi	r24, 0xCC	; 204
    21b6:	93 e0       	ldi	r25, 0x03	; 3
    21b8:	12 c0       	rjmp	.+36     	; 0x21de <UI_Status+0xf8>
    21ba:	02 e0       	ldi	r16, 0x02	; 2
    21bc:	21 e0       	ldi	r18, 0x01	; 1
    21be:	40 e0       	ldi	r20, 0x00	; 0
    21c0:	60 e1       	ldi	r22, 0x10	; 16
    21c2:	8a ea       	ldi	r24, 0xAA	; 170
    21c4:	93 e0       	ldi	r25, 0x03	; 3
    21c6:	0b c0       	rjmp	.+22     	; 0x21de <UI_Status+0xf8>
    21c8:	02 e0       	ldi	r16, 0x02	; 2
    21ca:	21 e0       	ldi	r18, 0x01	; 1
    21cc:	40 e0       	ldi	r20, 0x00	; 0
    21ce:	60 e1       	ldi	r22, 0x10	; 16
    21d0:	85 30       	cpi	r24, 0x05	; 5
    21d2:	19 f4       	brne	.+6      	; 0x21da <UI_Status+0xf4>
    21d4:	89 e9       	ldi	r24, 0x99	; 153
    21d6:	93 e0       	ldi	r25, 0x03	; 3
    21d8:	02 c0       	rjmp	.+4      	; 0x21de <UI_Status+0xf8>
    21da:	88 e8       	ldi	r24, 0x88	; 136
    21dc:	93 e0       	ldi	r25, 0x03	; 3
    21de:	0e 94 05 05 	call	0xa0a	; 0xa0a <vfdPrintStrXY>
    21e2:	80 91 6a 03 	lds	r24, 0x036A
    21e6:	82 30       	cpi	r24, 0x02	; 2
    21e8:	81 f5       	brne	.+96     	; 0x224a <UI_Status+0x164>
    21ea:	80 91 98 01 	lds	r24, 0x0198
    21ee:	81 11       	cpse	r24, r1
    21f0:	1f c0       	rjmp	.+62     	; 0x2230 <UI_Status+0x14a>
    21f2:	0e 94 a3 16 	call	0x2d46	; 0x2d46 <IsWeldEnabled>
    21f6:	88 23       	and	r24, r24
    21f8:	a1 f0       	breq	.+40     	; 0x2222 <UI_Status+0x13c>
    21fa:	80 91 97 01 	lds	r24, 0x0197
    21fe:	88 23       	and	r24, r24
    2200:	49 f0       	breq	.+18     	; 0x2214 <UI_Status+0x12e>
    2202:	83 30       	cpi	r24, 0x03	; 3
    2204:	10 f5       	brcc	.+68     	; 0x224a <UI_Status+0x164>
    2206:	02 e0       	ldi	r16, 0x02	; 2
    2208:	21 e0       	ldi	r18, 0x01	; 1
    220a:	40 e0       	ldi	r20, 0x00	; 0
    220c:	60 e1       	ldi	r22, 0x10	; 16
    220e:	86 e6       	ldi	r24, 0x66	; 102
    2210:	93 e0       	ldi	r25, 0x03	; 3
    2212:	19 c0       	rjmp	.+50     	; 0x2246 <UI_Status+0x160>
    2214:	02 e0       	ldi	r16, 0x02	; 2
    2216:	21 e0       	ldi	r18, 0x01	; 1
    2218:	40 e0       	ldi	r20, 0x00	; 0
    221a:	60 e1       	ldi	r22, 0x10	; 16
    221c:	87 e7       	ldi	r24, 0x77	; 119
    221e:	93 e0       	ldi	r25, 0x03	; 3
    2220:	12 c0       	rjmp	.+36     	; 0x2246 <UI_Status+0x160>
    2222:	02 e0       	ldi	r16, 0x02	; 2
    2224:	21 e0       	ldi	r18, 0x01	; 1
    2226:	40 e0       	ldi	r20, 0x00	; 0
    2228:	60 e1       	ldi	r22, 0x10	; 16
    222a:	85 e5       	ldi	r24, 0x55	; 85
    222c:	93 e0       	ldi	r25, 0x03	; 3
    222e:	0b c0       	rjmp	.+22     	; 0x2246 <UI_Status+0x160>
    2230:	02 e0       	ldi	r16, 0x02	; 2
    2232:	21 e0       	ldi	r18, 0x01	; 1
    2234:	40 e0       	ldi	r20, 0x00	; 0
    2236:	60 e1       	ldi	r22, 0x10	; 16
    2238:	85 30       	cpi	r24, 0x05	; 5
    223a:	19 f4       	brne	.+6      	; 0x2242 <UI_Status+0x15c>
    223c:	84 e4       	ldi	r24, 0x44	; 68
    223e:	93 e0       	ldi	r25, 0x03	; 3
    2240:	02 c0       	rjmp	.+4      	; 0x2246 <UI_Status+0x160>
    2242:	83 e3       	ldi	r24, 0x33	; 51
    2244:	93 e0       	ldi	r25, 0x03	; 3
    2246:	0e 94 05 05 	call	0xa0a	; 0xa0a <vfdPrintStrXY>
    224a:	80 91 69 03 	lds	r24, 0x0369
    224e:	02 e0       	ldi	r16, 0x02	; 2
    2250:	21 e0       	ldi	r18, 0x01	; 1
    2252:	46 e0       	ldi	r20, 0x06	; 6
    2254:	62 e0       	ldi	r22, 0x02	; 2
    2256:	81 30       	cpi	r24, 0x01	; 1
    2258:	19 f4       	brne	.+6      	; 0x2260 <UI_Status+0x17a>
    225a:	80 e3       	ldi	r24, 0x30	; 48
    225c:	93 e0       	ldi	r25, 0x03	; 3
    225e:	02 c0       	rjmp	.+4      	; 0x2264 <UI_Status+0x17e>
    2260:	8d e2       	ldi	r24, 0x2D	; 45
    2262:	93 e0       	ldi	r25, 0x03	; 3
    2264:	0e 94 05 05 	call	0xa0a	; 0xa0a <vfdPrintStrXY>
    2268:	80 91 98 01 	lds	r24, 0x0198
    226c:	80 93 96 01 	sts	0x0196, r24
    2270:	cf 91       	pop	r28
    2272:	0f 91       	pop	r16
    2274:	0c 94 5b 0f 	jmp	0x1eb6	; 0x1eb6 <UI_ResetActivity>
    2278:	cf 91       	pop	r28
    227a:	0f 91       	pop	r16
    227c:	08 95       	ret

0000227e <UI_ForceUpdate>:
    227e:	81 e0       	ldi	r24, 0x01	; 1
    2280:	0c 94 73 10 	jmp	0x20e6	; 0x20e6 <UI_Status>

00002284 <UI_Service>:
    2284:	0f 93       	push	r16
    2286:	1f 93       	push	r17
    2288:	80 91 07 01 	lds	r24, 0x0107
    228c:	90 91 06 01 	lds	r25, 0x0106
    2290:	98 13       	cpse	r25, r24
    2292:	10 92 a0 01 	sts	0x01A0, r1
    2296:	80 93 06 01 	sts	0x0106, r24
    229a:	0e 94 c7 02 	call	0x58e	; 0x58e <GetSysTicks>
    229e:	00 91 37 03 	lds	r16, 0x0337
    22a2:	10 91 38 03 	lds	r17, 0x0338
    22a6:	20 91 39 03 	lds	r18, 0x0339
    22aa:	30 91 3a 03 	lds	r19, 0x033A
    22ae:	06 17       	cp	r16, r22
    22b0:	17 07       	cpc	r17, r23
    22b2:	28 07       	cpc	r18, r24
    22b4:	39 07       	cpc	r19, r25
    22b6:	68 f4       	brcc	.+26     	; 0x22d2 <UI_Service+0x4e>
    22b8:	83 e0       	ldi	r24, 0x03	; 3
    22ba:	0e 94 ef 05 	call	0xbde	; 0xbde <vfdSetBright>
    22be:	10 92 09 01 	sts	0x0109, r1
    22c2:	81 e0       	ldi	r24, 0x01	; 1
    22c4:	80 93 9f 01 	sts	0x019F, r24
    22c8:	10 92 a0 01 	sts	0x01A0, r1
    22cc:	0e 94 6d 0f 	call	0x1eda	; 0x1eda <UI_ScreenSaver>
    22d0:	06 c0       	rjmp	.+12     	; 0x22de <UI_Service+0x5a>
    22d2:	80 e0       	ldi	r24, 0x00	; 0
    22d4:	0e 94 ef 05 	call	0xbde	; 0xbde <vfdSetBright>
    22d8:	81 e0       	ldi	r24, 0x01	; 1
    22da:	80 93 09 01 	sts	0x0109, r24
    22de:	84 eb       	ldi	r24, 0xB4	; 180
    22e0:	91 e0       	ldi	r25, 0x01	; 1
    22e2:	0e 94 b9 0f 	call	0x1f72	; 0x1f72 <UI_ProcessInput>
    22e6:	80 91 07 01 	lds	r24, 0x0107
    22ea:	9f ef       	ldi	r25, 0xFF	; 255
    22ec:	98 0f       	add	r25, r24
    22ee:	9e 3f       	cpi	r25, 0xFE	; 254
    22f0:	08 f0       	brcs	.+2      	; 0x22f4 <UI_Service+0x70>
    22f2:	37 c1       	rjmp	.+622    	; 0x2562 <UI_Service+0x2de>
    22f4:	91 e0       	ldi	r25, 0x01	; 1
    22f6:	90 93 9f 01 	sts	0x019F, r25
    22fa:	90 91 a0 01 	lds	r25, 0x01A0
    22fe:	91 11       	cpse	r25, r1
    2300:	49 c0       	rjmp	.+146    	; 0x2394 <UI_Service+0x110>
    2302:	0e 94 c2 0e 	call	0x1d84	; 0x1d84 <uiObj_GetObject>
    2306:	90 93 9e 01 	sts	0x019E, r25
    230a:	80 93 9d 01 	sts	0x019D, r24
    230e:	0e 94 f0 05 	call	0xbe0	; 0xbe0 <vfdClr>
    2312:	a0 91 07 01 	lds	r26, 0x0107
    2316:	16 e1       	ldi	r17, 0x16	; 22
    2318:	1a 9f       	mul	r17, r26
    231a:	d0 01       	movw	r26, r0
    231c:	11 24       	eor	r1, r1
    231e:	af 53       	subi	r26, 0x3F	; 63
    2320:	be 4f       	sbci	r27, 0xFE	; 254
    2322:	02 e0       	ldi	r16, 0x02	; 2
    2324:	20 e0       	ldi	r18, 0x00	; 0
    2326:	40 e0       	ldi	r20, 0x00	; 0
    2328:	50 96       	adiw	r26, 0x10	; 16
    232a:	6c 91       	ld	r22, X
    232c:	50 97       	sbiw	r26, 0x10	; 16
    232e:	12 96       	adiw	r26, 0x02	; 2
    2330:	8d 91       	ld	r24, X+
    2332:	9c 91       	ld	r25, X
    2334:	13 97       	sbiw	r26, 0x03	; 3
    2336:	0e 94 05 05 	call	0xa0a	; 0xa0a <vfdPrintStrXY>
    233a:	e0 91 07 01 	lds	r30, 0x0107
    233e:	1e 9f       	mul	r17, r30
    2340:	f0 01       	movw	r30, r0
    2342:	11 24       	eor	r1, r1
    2344:	ef 53       	subi	r30, 0x3F	; 63
    2346:	fe 4f       	sbci	r31, 0xFE	; 254
    2348:	21 e0       	ldi	r18, 0x01	; 1
    234a:	41 e0       	ldi	r20, 0x01	; 1
    234c:	61 89       	ldd	r22, Z+17	; 0x11
    234e:	84 81       	ldd	r24, Z+4	; 0x04
    2350:	95 81       	ldd	r25, Z+5	; 0x05
    2352:	0e 94 05 05 	call	0xa0a	; 0xa0a <vfdPrintStrXY>
    2356:	e0 91 9d 01 	lds	r30, 0x019D
    235a:	f0 91 9e 01 	lds	r31, 0x019E
    235e:	81 81       	ldd	r24, Z+1	; 0x01
    2360:	8f 3f       	cpi	r24, 0xFF	; 255
    2362:	39 f0       	breq	.+14     	; 0x2372 <UI_Service+0xee>
    2364:	61 e0       	ldi	r22, 0x01	; 1
    2366:	88 e0       	ldi	r24, 0x08	; 8
    2368:	0e 94 c3 04 	call	0x986	; 0x986 <vfdGotoXY>
    236c:	8e e7       	ldi	r24, 0x7E	; 126
    236e:	0e 94 aa 04 	call	0x954	; 0x954 <vfdSendData>
    2372:	e0 91 9d 01 	lds	r30, 0x019D
    2376:	f0 91 9e 01 	lds	r31, 0x019E
    237a:	80 81       	ld	r24, Z
    237c:	8f 3f       	cpi	r24, 0xFF	; 255
    237e:	39 f0       	breq	.+14     	; 0x238e <UI_Service+0x10a>
    2380:	61 e0       	ldi	r22, 0x01	; 1
    2382:	87 e0       	ldi	r24, 0x07	; 7
    2384:	0e 94 c3 04 	call	0x986	; 0x986 <vfdGotoXY>
    2388:	8f e7       	ldi	r24, 0x7F	; 127
    238a:	0e 94 aa 04 	call	0x954	; 0x954 <vfdSendData>
    238e:	81 e0       	ldi	r24, 0x01	; 1
    2390:	80 93 a0 01 	sts	0x01A0, r24
    2394:	80 91 b4 01 	lds	r24, 0x01B4
    2398:	81 30       	cpi	r24, 0x01	; 1
    239a:	09 f0       	breq	.+2      	; 0x239e <UI_Service+0x11a>
    239c:	6c c0       	rjmp	.+216    	; 0x2476 <UI_Service+0x1f2>
    239e:	0e 94 e3 13 	call	0x27c6	; 0x27c6 <DisableWeld>
    23a2:	80 91 b5 01 	lds	r24, 0x01B5
    23a6:	81 30       	cpi	r24, 0x01	; 1
    23a8:	71 f4       	brne	.+28     	; 0x23c6 <UI_Service+0x142>
    23aa:	e0 91 9d 01 	lds	r30, 0x019D
    23ae:	f0 91 9e 01 	lds	r31, 0x019E
    23b2:	06 80       	ldd	r0, Z+6	; 0x06
    23b4:	f7 81       	ldd	r31, Z+7	; 0x07
    23b6:	e0 2d       	mov	r30, r0
    23b8:	30 97       	sbiw	r30, 0x00	; 0
    23ba:	09 f0       	breq	.+2      	; 0x23be <UI_Service+0x13a>
    23bc:	09 95       	icall
    23be:	84 eb       	ldi	r24, 0xB4	; 180
    23c0:	91 e0       	ldi	r25, 0x01	; 1
    23c2:	0e 94 6b 10 	call	0x20d6	; 0x20d6 <UI_ResetInputState>
    23c6:	80 91 b6 01 	lds	r24, 0x01B6
    23ca:	81 30       	cpi	r24, 0x01	; 1
    23cc:	71 f4       	brne	.+28     	; 0x23ea <UI_Service+0x166>
    23ce:	e0 91 9d 01 	lds	r30, 0x019D
    23d2:	f0 91 9e 01 	lds	r31, 0x019E
    23d6:	00 84       	ldd	r0, Z+8	; 0x08
    23d8:	f1 85       	ldd	r31, Z+9	; 0x09
    23da:	e0 2d       	mov	r30, r0
    23dc:	30 97       	sbiw	r30, 0x00	; 0
    23de:	09 f0       	breq	.+2      	; 0x23e2 <UI_Service+0x15e>
    23e0:	09 95       	icall
    23e2:	84 eb       	ldi	r24, 0xB4	; 180
    23e4:	91 e0       	ldi	r25, 0x01	; 1
    23e6:	0e 94 6b 10 	call	0x20d6	; 0x20d6 <UI_ResetInputState>
    23ea:	80 91 b7 01 	lds	r24, 0x01B7
    23ee:	81 30       	cpi	r24, 0x01	; 1
    23f0:	71 f4       	brne	.+28     	; 0x240e <UI_Service+0x18a>
    23f2:	e0 91 9d 01 	lds	r30, 0x019D
    23f6:	f0 91 9e 01 	lds	r31, 0x019E
    23fa:	02 84       	ldd	r0, Z+10	; 0x0a
    23fc:	f3 85       	ldd	r31, Z+11	; 0x0b
    23fe:	e0 2d       	mov	r30, r0
    2400:	30 97       	sbiw	r30, 0x00	; 0
    2402:	09 f0       	breq	.+2      	; 0x2406 <UI_Service+0x182>
    2404:	09 95       	icall
    2406:	84 eb       	ldi	r24, 0xB4	; 180
    2408:	91 e0       	ldi	r25, 0x01	; 1
    240a:	0e 94 6b 10 	call	0x20d6	; 0x20d6 <UI_ResetInputState>
    240e:	80 91 b5 01 	lds	r24, 0x01B5
    2412:	82 30       	cpi	r24, 0x02	; 2
    2414:	71 f4       	brne	.+28     	; 0x2432 <UI_Service+0x1ae>
    2416:	e0 91 9d 01 	lds	r30, 0x019D
    241a:	f0 91 9e 01 	lds	r31, 0x019E
    241e:	04 84       	ldd	r0, Z+12	; 0x0c
    2420:	f5 85       	ldd	r31, Z+13	; 0x0d
    2422:	e0 2d       	mov	r30, r0
    2424:	30 97       	sbiw	r30, 0x00	; 0
    2426:	09 f0       	breq	.+2      	; 0x242a <UI_Service+0x1a6>
    2428:	09 95       	icall
    242a:	84 eb       	ldi	r24, 0xB4	; 180
    242c:	91 e0       	ldi	r25, 0x01	; 1
    242e:	0e 94 6b 10 	call	0x20d6	; 0x20d6 <UI_ResetInputState>
    2432:	80 91 b6 01 	lds	r24, 0x01B6
    2436:	82 30       	cpi	r24, 0x02	; 2
    2438:	71 f4       	brne	.+28     	; 0x2456 <UI_Service+0x1d2>
    243a:	e0 91 9d 01 	lds	r30, 0x019D
    243e:	f0 91 9e 01 	lds	r31, 0x019E
    2442:	06 84       	ldd	r0, Z+14	; 0x0e
    2444:	f7 85       	ldd	r31, Z+15	; 0x0f
    2446:	e0 2d       	mov	r30, r0
    2448:	30 97       	sbiw	r30, 0x00	; 0
    244a:	09 f0       	breq	.+2      	; 0x244e <UI_Service+0x1ca>
    244c:	09 95       	icall
    244e:	84 eb       	ldi	r24, 0xB4	; 180
    2450:	91 e0       	ldi	r25, 0x01	; 1
    2452:	0e 94 6b 10 	call	0x20d6	; 0x20d6 <UI_ResetInputState>
    2456:	10 92 b4 01 	sts	0x01B4, r1
    245a:	10 92 a0 01 	sts	0x01A0, r1
    245e:	0e 94 c7 02 	call	0x58e	; 0x58e <GetSysTicks>
    2462:	60 93 99 01 	sts	0x0199, r22
    2466:	70 93 9a 01 	sts	0x019A, r23
    246a:	80 93 9b 01 	sts	0x019B, r24
    246e:	90 93 9c 01 	sts	0x019C, r25
    2472:	0e 94 5b 0f 	call	0x1eb6	; 0x1eb6 <UI_ResetActivity>
    2476:	80 91 be 01 	lds	r24, 0x01BE
    247a:	88 23       	and	r24, r24
    247c:	09 f4       	brne	.+2      	; 0x2480 <UI_Service+0x1fc>
    247e:	4c c0       	rjmp	.+152    	; 0x2518 <UI_Service+0x294>
    2480:	80 91 c0 01 	lds	r24, 0x01C0
    2484:	88 23       	and	r24, r24
    2486:	b1 f1       	breq	.+108    	; 0x24f4 <UI_Service+0x270>
    2488:	80 91 bf 01 	lds	r24, 0x01BF
    248c:	81 11       	cpse	r24, r1
    248e:	17 c0       	rjmp	.+46     	; 0x24be <UI_Service+0x23a>
    2490:	80 91 07 01 	lds	r24, 0x0107
    2494:	0e 94 0f 0f 	call	0x1e1e	; 0x1e1e <uiObj_DrawNext>
    2498:	01 97       	sbiw	r24, 0x01	; 1
    249a:	59 f4       	brne	.+22     	; 0x24b2 <UI_Service+0x22e>
    249c:	88 ec       	ldi	r24, 0xC8	; 200
    249e:	0e 94 d0 05 	call	0xba0	; 0xba0 <vfdFlipPageRight>
    24a2:	e0 91 9d 01 	lds	r30, 0x019D
    24a6:	f0 91 9e 01 	lds	r31, 0x019E
    24aa:	81 81       	ldd	r24, Z+1	; 0x01
    24ac:	0e 94 d2 0e 	call	0x1da4	; 0x1da4 <uiObj_Activate>
    24b0:	06 c0       	rjmp	.+12     	; 0x24be <UI_Service+0x23a>
    24b2:	62 e3       	ldi	r22, 0x32	; 50
    24b4:	70 e0       	ldi	r23, 0x00	; 0
    24b6:	80 e0       	ldi	r24, 0x00	; 0
    24b8:	90 e0       	ldi	r25, 0x00	; 0
    24ba:	0e 94 d0 02 	call	0x5a0	; 0x5a0 <Beep>
    24be:	80 91 bf 01 	lds	r24, 0x01BF
    24c2:	81 30       	cpi	r24, 0x01	; 1
    24c4:	b9 f4       	brne	.+46     	; 0x24f4 <UI_Service+0x270>
    24c6:	80 91 07 01 	lds	r24, 0x0107
    24ca:	0e 94 df 0e 	call	0x1dbe	; 0x1dbe <uiObj_DrawPrev>
    24ce:	01 97       	sbiw	r24, 0x01	; 1
    24d0:	59 f4       	brne	.+22     	; 0x24e8 <UI_Service+0x264>
    24d2:	88 ec       	ldi	r24, 0xC8	; 200
    24d4:	0e 94 b1 05 	call	0xb62	; 0xb62 <vfdFlipPageLeft>
    24d8:	e0 91 9d 01 	lds	r30, 0x019D
    24dc:	f0 91 9e 01 	lds	r31, 0x019E
    24e0:	80 81       	ld	r24, Z
    24e2:	0e 94 d2 0e 	call	0x1da4	; 0x1da4 <uiObj_Activate>
    24e6:	06 c0       	rjmp	.+12     	; 0x24f4 <UI_Service+0x270>
    24e8:	62 e3       	ldi	r22, 0x32	; 50
    24ea:	70 e0       	ldi	r23, 0x00	; 0
    24ec:	80 e0       	ldi	r24, 0x00	; 0
    24ee:	90 e0       	ldi	r25, 0x00	; 0
    24f0:	0e 94 d0 02 	call	0x5a0	; 0x5a0 <Beep>
    24f4:	84 eb       	ldi	r24, 0xB4	; 180
    24f6:	91 e0       	ldi	r25, 0x01	; 1
    24f8:	0e 94 6b 10 	call	0x20d6	; 0x20d6 <UI_ResetInputState>
    24fc:	10 92 a0 01 	sts	0x01A0, r1
    2500:	0e 94 c7 02 	call	0x58e	; 0x58e <GetSysTicks>
    2504:	60 93 99 01 	sts	0x0199, r22
    2508:	70 93 9a 01 	sts	0x019A, r23
    250c:	80 93 9b 01 	sts	0x019B, r24
    2510:	90 93 9c 01 	sts	0x019C, r25
    2514:	0e 94 5b 0f 	call	0x1eb6	; 0x1eb6 <UI_ResetActivity>
    2518:	0e 94 c7 02 	call	0x58e	; 0x58e <GetSysTicks>
    251c:	00 91 99 01 	lds	r16, 0x0199
    2520:	10 91 9a 01 	lds	r17, 0x019A
    2524:	20 91 9b 01 	lds	r18, 0x019B
    2528:	30 91 9c 01 	lds	r19, 0x019C
    252c:	60 1b       	sub	r22, r16
    252e:	71 0b       	sbc	r23, r17
    2530:	82 0b       	sbc	r24, r18
    2532:	93 0b       	sbc	r25, r19
    2534:	6d 32       	cpi	r22, 0x2D	; 45
    2536:	71 40       	sbci	r23, 0x01	; 1
    2538:	81 05       	cpc	r24, r1
    253a:	91 05       	cpc	r25, r1
    253c:	08 f4       	brcc	.+2      	; 0x2540 <UI_Service+0x2bc>
    253e:	6b c0       	rjmp	.+214    	; 0x2616 <UI_Service+0x392>
    2540:	80 91 07 01 	lds	r24, 0x0107
    2544:	80 93 05 01 	sts	0x0105, r24
    2548:	80 e0       	ldi	r24, 0x00	; 0
    254a:	0e 94 d2 0e 	call	0x1da4	; 0x1da4 <uiObj_Activate>
    254e:	0e 94 3f 11 	call	0x227e	; 0x227e <UI_ForceUpdate>
    2552:	62 e3       	ldi	r22, 0x32	; 50
    2554:	70 e0       	ldi	r23, 0x00	; 0
    2556:	80 e0       	ldi	r24, 0x00	; 0
    2558:	90 e0       	ldi	r25, 0x00	; 0
    255a:	1f 91       	pop	r17
    255c:	0f 91       	pop	r16
    255e:	0c 94 d0 02 	jmp	0x5a0	; 0x5a0 <Beep>
    2562:	8f 3f       	cpi	r24, 0xFF	; 255
    2564:	11 f5       	brne	.+68     	; 0x25aa <UI_Service+0x326>
    2566:	80 91 a0 01 	lds	r24, 0x01A0
    256a:	81 11       	cpse	r24, r1
    256c:	1e c0       	rjmp	.+60     	; 0x25aa <UI_Service+0x326>
    256e:	80 91 09 01 	lds	r24, 0x0109
    2572:	88 23       	and	r24, r24
    2574:	a9 f0       	breq	.+42     	; 0x25a0 <UI_Service+0x31c>
    2576:	0e 94 f0 05 	call	0xbe0	; 0xbe0 <vfdClr>
    257a:	02 e0       	ldi	r16, 0x02	; 2
    257c:	20 e0       	ldi	r18, 0x00	; 0
    257e:	40 e0       	ldi	r20, 0x00	; 0
    2580:	60 e1       	ldi	r22, 0x10	; 16
    2582:	80 91 02 01 	lds	r24, 0x0102
    2586:	90 91 03 01 	lds	r25, 0x0103
    258a:	0e 94 05 05 	call	0xa0a	; 0xa0a <vfdPrintStrXY>
    258e:	21 e0       	ldi	r18, 0x01	; 1
    2590:	40 e0       	ldi	r20, 0x00	; 0
    2592:	60 e1       	ldi	r22, 0x10	; 16
    2594:	80 91 00 01 	lds	r24, 0x0100
    2598:	90 91 01 01 	lds	r25, 0x0101
    259c:	0e 94 05 05 	call	0xa0a	; 0xa0a <vfdPrintStrXY>
    25a0:	81 e0       	ldi	r24, 0x01	; 1
    25a2:	80 93 a0 01 	sts	0x01A0, r24
    25a6:	0e 94 e3 13 	call	0x27c6	; 0x27c6 <DisableWeld>
    25aa:	80 91 07 01 	lds	r24, 0x0107
    25ae:	81 11       	cpse	r24, r1
    25b0:	32 c0       	rjmp	.+100    	; 0x2616 <UI_Service+0x392>
    25b2:	80 91 09 01 	lds	r24, 0x0109
    25b6:	88 23       	and	r24, r24
    25b8:	39 f0       	breq	.+14     	; 0x25c8 <UI_Service+0x344>
    25ba:	0e 94 f2 13 	call	0x27e4	; 0x27e4 <EnableWeld>
    25be:	80 91 9f 01 	lds	r24, 0x019F
    25c2:	0e 94 73 10 	call	0x20e6	; 0x20e6 <UI_Status>
    25c6:	02 c0       	rjmp	.+4      	; 0x25cc <UI_Service+0x348>
    25c8:	0e 94 e3 13 	call	0x27c6	; 0x27c6 <DisableWeld>
    25cc:	80 91 be 01 	lds	r24, 0x01BE
    25d0:	81 11       	cpse	r24, r1
    25d2:	04 c0       	rjmp	.+8      	; 0x25dc <UI_Service+0x358>
    25d4:	80 91 b4 01 	lds	r24, 0x01B4
    25d8:	88 23       	and	r24, r24
    25da:	d9 f0       	breq	.+54     	; 0x2612 <UI_Service+0x38e>
    25dc:	84 eb       	ldi	r24, 0xB4	; 180
    25de:	91 e0       	ldi	r25, 0x01	; 1
    25e0:	0e 94 6b 10 	call	0x20d6	; 0x20d6 <UI_ResetInputState>
    25e4:	80 91 05 01 	lds	r24, 0x0105
    25e8:	81 11       	cpse	r24, r1
    25ea:	01 c0       	rjmp	.+2      	; 0x25ee <UI_Service+0x36a>
    25ec:	81 e0       	ldi	r24, 0x01	; 1
    25ee:	80 93 07 01 	sts	0x0107, r24
    25f2:	0e 94 c7 02 	call	0x58e	; 0x58e <GetSysTicks>
    25f6:	60 93 99 01 	sts	0x0199, r22
    25fa:	70 93 9a 01 	sts	0x019A, r23
    25fe:	80 93 9b 01 	sts	0x019B, r24
    2602:	90 93 9c 01 	sts	0x019C, r25
    2606:	0e 94 e3 13 	call	0x27c6	; 0x27c6 <DisableWeld>
    260a:	10 92 a0 01 	sts	0x01A0, r1
    260e:	0e 94 5b 0f 	call	0x1eb6	; 0x1eb6 <UI_ResetActivity>
    2612:	10 92 9f 01 	sts	0x019F, r1
    2616:	1f 91       	pop	r17
    2618:	0f 91       	pop	r16
    261a:	08 95       	ret

0000261c <__vector_3>:
    261c:	1f 92       	push	r1
    261e:	0f 92       	push	r0
    2620:	0f b6       	in	r0, 0x3f	; 63
    2622:	0f 92       	push	r0
    2624:	11 24       	eor	r1, r1
    2626:	2f 93       	push	r18
    2628:	3f 93       	push	r19
    262a:	4f 93       	push	r20
    262c:	5f 93       	push	r21
    262e:	6f 93       	push	r22
    2630:	7f 93       	push	r23
    2632:	8f 93       	push	r24
    2634:	9f 93       	push	r25
    2636:	af 93       	push	r26
    2638:	bf 93       	push	r27
    263a:	ef 93       	push	r30
    263c:	ff 93       	push	r31
    263e:	1a 99       	sbic	0x03, 2	; 3
    2640:	03 c0       	rjmp	.+6      	; 0x2648 <__vector_3+0x2c>
    2642:	10 92 0a 01 	sts	0x010A, r1
    2646:	0a c0       	rjmp	.+20     	; 0x265c <__vector_3+0x40>
    2648:	0e 94 5b 0f 	call	0x1eb6	; 0x1eb6 <UI_ResetActivity>
    264c:	80 91 5d 03 	lds	r24, 0x035D
    2650:	88 23       	and	r24, r24
    2652:	19 f0       	breq	.+6      	; 0x265a <__vector_3+0x3e>
    2654:	81 e0       	ldi	r24, 0x01	; 1
    2656:	80 93 0a 01 	sts	0x010A, r24
    265a:	ea 98       	cbi	0x1d, 2	; 29
    265c:	ff 91       	pop	r31
    265e:	ef 91       	pop	r30
    2660:	bf 91       	pop	r27
    2662:	af 91       	pop	r26
    2664:	9f 91       	pop	r25
    2666:	8f 91       	pop	r24
    2668:	7f 91       	pop	r23
    266a:	6f 91       	pop	r22
    266c:	5f 91       	pop	r21
    266e:	4f 91       	pop	r20
    2670:	3f 91       	pop	r19
    2672:	2f 91       	pop	r18
    2674:	0f 90       	pop	r0
    2676:	0f be       	out	0x3f, r0	; 63
    2678:	0f 90       	pop	r0
    267a:	1f 90       	pop	r1
    267c:	18 95       	reti

0000267e <__vector_1>:
    267e:	1f 92       	push	r1
    2680:	0f 92       	push	r0
    2682:	0f b6       	in	r0, 0x3f	; 63
    2684:	0f 92       	push	r0
    2686:	11 24       	eor	r1, r1
    2688:	2f 93       	push	r18
    268a:	3f 93       	push	r19
    268c:	4f 93       	push	r20
    268e:	5f 93       	push	r21
    2690:	6f 93       	push	r22
    2692:	7f 93       	push	r23
    2694:	8f 93       	push	r24
    2696:	9f 93       	push	r25
    2698:	af 93       	push	r26
    269a:	bf 93       	push	r27
    269c:	ef 93       	push	r30
    269e:	ff 93       	push	r31
    26a0:	99 b1       	in	r25, 0x09	; 9
    26a2:	81 e0       	ldi	r24, 0x01	; 1
    26a4:	80 93 53 03 	sts	0x0353, r24
    26a8:	10 92 54 03 	sts	0x0354, r1
    26ac:	92 fd       	sbrc	r25, 2
    26ae:	03 c0       	rjmp	.+6      	; 0x26b6 <__vector_1+0x38>
    26b0:	10 92 52 03 	sts	0x0352, r1
    26b4:	02 c0       	rjmp	.+4      	; 0x26ba <__vector_1+0x3c>
    26b6:	80 93 52 03 	sts	0x0352, r24
    26ba:	0e 94 c7 02 	call	0x58e	; 0x58e <GetSysTicks>
    26be:	60 93 4e 03 	sts	0x034E, r22
    26c2:	70 93 4f 03 	sts	0x034F, r23
    26c6:	80 93 50 03 	sts	0x0350, r24
    26ca:	90 93 51 03 	sts	0x0351, r25
    26ce:	ff 91       	pop	r31
    26d0:	ef 91       	pop	r30
    26d2:	bf 91       	pop	r27
    26d4:	af 91       	pop	r26
    26d6:	9f 91       	pop	r25
    26d8:	8f 91       	pop	r24
    26da:	7f 91       	pop	r23
    26dc:	6f 91       	pop	r22
    26de:	5f 91       	pop	r21
    26e0:	4f 91       	pop	r20
    26e2:	3f 91       	pop	r19
    26e4:	2f 91       	pop	r18
    26e6:	0f 90       	pop	r0
    26e8:	0f be       	out	0x3f, r0	; 63
    26ea:	0f 90       	pop	r0
    26ec:	1f 90       	pop	r1
    26ee:	18 95       	reti

000026f0 <__vector_2>:
    26f0:	1f 92       	push	r1
    26f2:	0f 92       	push	r0
    26f4:	0f b6       	in	r0, 0x3f	; 63
    26f6:	0f 92       	push	r0
    26f8:	11 24       	eor	r1, r1
    26fa:	2f 93       	push	r18
    26fc:	3f 93       	push	r19
    26fe:	4f 93       	push	r20
    2700:	5f 93       	push	r21
    2702:	6f 93       	push	r22
    2704:	7f 93       	push	r23
    2706:	8f 93       	push	r24
    2708:	9f 93       	push	r25
    270a:	af 93       	push	r26
    270c:	bf 93       	push	r27
    270e:	ef 93       	push	r30
    2710:	ff 93       	push	r31
    2712:	4b 9b       	sbis	0x09, 3	; 9
    2714:	03 c0       	rjmp	.+6      	; 0x271c <__vector_2+0x2c>
    2716:	10 92 0a 01 	sts	0x010A, r1
    271a:	0e c0       	rjmp	.+28     	; 0x2738 <__vector_2+0x48>
    271c:	0e 94 5b 0f 	call	0x1eb6	; 0x1eb6 <UI_ResetActivity>
    2720:	80 91 69 03 	lds	r24, 0x0369
    2724:	81 11       	cpse	r24, r1
    2726:	07 c0       	rjmp	.+14     	; 0x2736 <__vector_2+0x46>
    2728:	80 91 5d 03 	lds	r24, 0x035D
    272c:	88 23       	and	r24, r24
    272e:	19 f0       	breq	.+6      	; 0x2736 <__vector_2+0x46>
    2730:	81 e0       	ldi	r24, 0x01	; 1
    2732:	80 93 0a 01 	sts	0x010A, r24
    2736:	e9 98       	cbi	0x1d, 1	; 29
    2738:	ff 91       	pop	r31
    273a:	ef 91       	pop	r30
    273c:	bf 91       	pop	r27
    273e:	af 91       	pop	r26
    2740:	9f 91       	pop	r25
    2742:	8f 91       	pop	r24
    2744:	7f 91       	pop	r23
    2746:	6f 91       	pop	r22
    2748:	5f 91       	pop	r21
    274a:	4f 91       	pop	r20
    274c:	3f 91       	pop	r19
    274e:	2f 91       	pop	r18
    2750:	0f 90       	pop	r0
    2752:	0f be       	out	0x3f, r0	; 63
    2754:	0f 90       	pop	r0
    2756:	1f 90       	pop	r1
    2758:	18 95       	reti

0000275a <WaitZeroX>:
    275a:	cf 92       	push	r12
    275c:	df 92       	push	r13
    275e:	ef 92       	push	r14
    2760:	ff 92       	push	r15
    2762:	0e 94 c7 02 	call	0x58e	; 0x58e <GetSysTicks>
    2766:	6b 01       	movw	r12, r22
    2768:	7c 01       	movw	r14, r24
    276a:	8a e0       	ldi	r24, 0x0A	; 10
    276c:	c8 0e       	add	r12, r24
    276e:	d1 1c       	adc	r13, r1
    2770:	e1 1c       	adc	r14, r1
    2772:	f1 1c       	adc	r15, r1
    2774:	80 91 53 03 	lds	r24, 0x0353
    2778:	81 11       	cpse	r24, r1
    277a:	07 c0       	rjmp	.+14     	; 0x278a <WaitZeroX+0x30>
    277c:	0e 94 c7 02 	call	0x58e	; 0x58e <GetSysTicks>
    2780:	c6 16       	cp	r12, r22
    2782:	d7 06       	cpc	r13, r23
    2784:	e8 06       	cpc	r14, r24
    2786:	f9 06       	cpc	r15, r25
    2788:	a8 f7       	brcc	.-22     	; 0x2774 <WaitZeroX+0x1a>
    278a:	80 91 53 03 	lds	r24, 0x0353
    278e:	88 23       	and	r24, r24
    2790:	21 f0       	breq	.+8      	; 0x279a <WaitZeroX+0x40>
    2792:	10 92 53 03 	sts	0x0353, r1
    2796:	81 e0       	ldi	r24, 0x01	; 1
    2798:	04 c0       	rjmp	.+8      	; 0x27a2 <WaitZeroX+0x48>
    279a:	81 e0       	ldi	r24, 0x01	; 1
    279c:	80 93 54 03 	sts	0x0354, r24
    27a0:	80 e0       	ldi	r24, 0x00	; 0
    27a2:	ff 90       	pop	r15
    27a4:	ef 90       	pop	r14
    27a6:	df 90       	pop	r13
    27a8:	cf 90       	pop	r12
    27aa:	08 95       	ret

000027ac <WELD_Init>:
    27ac:	e9 e6       	ldi	r30, 0x69	; 105
    27ae:	f0 e0       	ldi	r31, 0x00	; 0
    27b0:	80 81       	ld	r24, Z
    27b2:	81 63       	ori	r24, 0x31	; 49
    27b4:	80 83       	st	Z, r24
    27b6:	8d b3       	in	r24, 0x1d	; 29
    27b8:	87 60       	ori	r24, 0x07	; 7
    27ba:	8d bb       	out	0x1d, r24	; 29
    27bc:	10 92 5d 03 	sts	0x035D, r1
    27c0:	10 92 0a 01 	sts	0x010A, r1
    27c4:	08 95       	ret

000027c6 <DisableWeld>:
    27c6:	cf 93       	push	r28
    27c8:	80 91 5d 03 	lds	r24, 0x035D
    27cc:	88 23       	and	r24, r24
    27ce:	41 f0       	breq	.+16     	; 0x27e0 <DisableWeld+0x1a>
    27d0:	cf b7       	in	r28, 0x3f	; 63
    27d2:	f8 94       	cli
    27d4:	0e 94 6e 04 	call	0x8dc	; 0x8dc <EmergencyHaltWeld>
    27d8:	10 92 5d 03 	sts	0x035D, r1
    27dc:	5c 98       	cbi	0x0b, 4	; 11
    27de:	cf bf       	out	0x3f, r28	; 63
    27e0:	cf 91       	pop	r28
    27e2:	08 95       	ret

000027e4 <EnableWeld>:
    27e4:	80 91 61 03 	lds	r24, 0x0361
    27e8:	90 91 62 03 	lds	r25, 0x0362
    27ec:	c2 97       	sbiw	r24, 0x32	; 50
    27ee:	8f 3d       	cpi	r24, 0xDF	; 223
    27f0:	96 42       	sbci	r25, 0x26	; 38
    27f2:	08 f0       	brcs	.+2      	; 0x27f6 <EnableWeld+0x12>
    27f4:	57 c0       	rjmp	.+174    	; 0x28a4 <EnableWeld+0xc0>
    27f6:	80 91 63 03 	lds	r24, 0x0363
    27fa:	90 91 64 03 	lds	r25, 0x0364
    27fe:	c2 97       	sbiw	r24, 0x32	; 50
    2800:	8f 3d       	cpi	r24, 0xDF	; 223
    2802:	96 42       	sbci	r25, 0x26	; 38
    2804:	08 f0       	brcs	.+2      	; 0x2808 <EnableWeld+0x24>
    2806:	51 c0       	rjmp	.+162    	; 0x28aa <EnableWeld+0xc6>
    2808:	80 91 65 03 	lds	r24, 0x0365
    280c:	90 91 66 03 	lds	r25, 0x0366
    2810:	c2 97       	sbiw	r24, 0x32	; 50
    2812:	87 3b       	cpi	r24, 0xB7	; 183
    2814:	93 40       	sbci	r25, 0x03	; 3
    2816:	08 f0       	brcs	.+2      	; 0x281a <EnableWeld+0x36>
    2818:	4b c0       	rjmp	.+150    	; 0x28b0 <EnableWeld+0xcc>
    281a:	80 91 67 03 	lds	r24, 0x0367
    281e:	90 91 68 03 	lds	r25, 0x0368
    2822:	c2 97       	sbiw	r24, 0x32	; 50
    2824:	87 3b       	cpi	r24, 0xB7	; 183
    2826:	93 40       	sbci	r25, 0x03	; 3
    2828:	08 f0       	brcs	.+2      	; 0x282c <EnableWeld+0x48>
    282a:	45 c0       	rjmp	.+138    	; 0x28b6 <EnableWeld+0xd2>
    282c:	80 91 6a 03 	lds	r24, 0x036A
    2830:	83 30       	cpi	r24, 0x03	; 3
    2832:	08 f0       	brcs	.+2      	; 0x2836 <EnableWeld+0x52>
    2834:	43 c0       	rjmp	.+134    	; 0x28bc <EnableWeld+0xd8>
    2836:	80 91 5d 03 	lds	r24, 0x035D
    283a:	81 11       	cpse	r24, r1
    283c:	42 c0       	rjmp	.+132    	; 0x28c2 <EnableWeld+0xde>
    283e:	4f b7       	in	r20, 0x3f	; 63
    2840:	f8 94       	cli
    2842:	80 91 5e 03 	lds	r24, 0x035E
    2846:	20 e1       	ldi	r18, 0x10	; 16
    2848:	82 9f       	mul	r24, r18
    284a:	c0 01       	movw	r24, r0
    284c:	11 24       	eor	r1, r1
    284e:	90 93 3f 03 	sts	0x033F, r25
    2852:	80 93 3e 03 	sts	0x033E, r24
    2856:	9c 01       	movw	r18, r24
    2858:	22 27       	eor	r18, r18
    285a:	3f 70       	andi	r19, 0x0F	; 15
    285c:	30 93 3d 03 	sts	0x033D, r19
    2860:	80 93 3c 03 	sts	0x033C, r24
    2864:	2c 98       	cbi	0x05, 4	; 5
    2866:	80 91 3d 03 	lds	r24, 0x033D
    286a:	80 61       	ori	r24, 0x10	; 16
    286c:	8e bd       	out	0x2e, r24	; 46
    286e:	0d b4       	in	r0, 0x2d	; 45
    2870:	07 fe       	sbrs	r0, 7
    2872:	fd cf       	rjmp	.-6      	; 0x286e <EnableWeld+0x8a>
    2874:	80 91 3c 03 	lds	r24, 0x033C
    2878:	8e bd       	out	0x2e, r24	; 46
    287a:	0d b4       	in	r0, 0x2d	; 45
    287c:	07 fe       	sbrs	r0, 7
    287e:	fd cf       	rjmp	.-6      	; 0x287a <EnableWeld+0x96>
    2880:	2c 9a       	sbi	0x05, 4	; 5
    2882:	2b 9a       	sbi	0x05, 3	; 5
    2884:	85 e0       	ldi	r24, 0x05	; 5
    2886:	8a 95       	dec	r24
    2888:	f1 f7       	brne	.-4      	; 0x2886 <EnableWeld+0xa2>
    288a:	2b 98       	cbi	0x05, 3	; 5
    288c:	83 e0       	ldi	r24, 0x03	; 3
    288e:	80 93 5d 03 	sts	0x035D, r24
    2892:	80 91 81 00 	lds	r24, 0x0081
    2896:	85 60       	ori	r24, 0x05	; 5
    2898:	80 93 81 00 	sts	0x0081, r24
    289c:	4f bf       	out	0x3f, r20	; 63
    289e:	0e 94 3f 11 	call	0x227e	; 0x227e <UI_ForceUpdate>
    28a2:	0f c0       	rjmp	.+30     	; 0x28c2 <EnableWeld+0xde>
    28a4:	8f ef       	ldi	r24, 0xFF	; 255
    28a6:	9f ef       	ldi	r25, 0xFF	; 255
    28a8:	08 95       	ret
    28aa:	8e ef       	ldi	r24, 0xFE	; 254
    28ac:	9f ef       	ldi	r25, 0xFF	; 255
    28ae:	08 95       	ret
    28b0:	8d ef       	ldi	r24, 0xFD	; 253
    28b2:	9f ef       	ldi	r25, 0xFF	; 255
    28b4:	08 95       	ret
    28b6:	8c ef       	ldi	r24, 0xFC	; 252
    28b8:	9f ef       	ldi	r25, 0xFF	; 255
    28ba:	08 95       	ret
    28bc:	8b ef       	ldi	r24, 0xFB	; 251
    28be:	9f ef       	ldi	r25, 0xFF	; 255
    28c0:	08 95       	ret
    28c2:	81 e0       	ldi	r24, 0x01	; 1
    28c4:	90 e0       	ldi	r25, 0x00	; 0
    28c6:	08 95       	ret

000028c8 <WELD_Service>:
    28c8:	0f 93       	push	r16
    28ca:	1f 93       	push	r17
    28cc:	0e 94 c7 02 	call	0x58e	; 0x58e <GetSysTicks>
    28d0:	60 93 4a 03 	sts	0x034A, r22
    28d4:	70 93 4b 03 	sts	0x034B, r23
    28d8:	80 93 4c 03 	sts	0x034C, r24
    28dc:	90 93 4d 03 	sts	0x034D, r25
    28e0:	80 91 0a 01 	lds	r24, 0x010A
    28e4:	81 11       	cpse	r24, r1
    28e6:	17 c0       	rjmp	.+46     	; 0x2916 <WELD_Service+0x4e>
    28e8:	80 91 5b 03 	lds	r24, 0x035B
    28ec:	81 11       	cpse	r24, r1
    28ee:	13 c0       	rjmp	.+38     	; 0x2916 <WELD_Service+0x4e>
    28f0:	80 91 69 03 	lds	r24, 0x0369
    28f4:	81 30       	cpi	r24, 0x01	; 1
    28f6:	39 f4       	brne	.+14     	; 0x2906 <WELD_Service+0x3e>
    28f8:	80 91 5d 03 	lds	r24, 0x035D
    28fc:	88 23       	and	r24, r24
    28fe:	59 f0       	breq	.+22     	; 0x2916 <WELD_Service+0x4e>
    2900:	5c 9a       	sbi	0x0b, 4	; 11
    2902:	ea 9a       	sbi	0x1d, 2	; 29
    2904:	08 c0       	rjmp	.+16     	; 0x2916 <WELD_Service+0x4e>
    2906:	81 11       	cpse	r24, r1
    2908:	06 c0       	rjmp	.+12     	; 0x2916 <WELD_Service+0x4e>
    290a:	80 91 5d 03 	lds	r24, 0x035D
    290e:	88 23       	and	r24, r24
    2910:	11 f0       	breq	.+4      	; 0x2916 <WELD_Service+0x4e>
    2912:	5c 98       	cbi	0x0b, 4	; 11
    2914:	e9 9a       	sbi	0x1d, 1	; 29
    2916:	80 91 0a 01 	lds	r24, 0x010A
    291a:	81 30       	cpi	r24, 0x01	; 1
    291c:	09 f0       	breq	.+2      	; 0x2920 <WELD_Service+0x58>
    291e:	c7 c0       	rjmp	.+398    	; 0x2aae <WELD_Service+0x1e6>
    2920:	10 91 69 03 	lds	r17, 0x0369
    2924:	11 23       	and	r17, r17
    2926:	09 f4       	brne	.+2      	; 0x292a <WELD_Service+0x62>
    2928:	47 c0       	rjmp	.+142    	; 0x29b8 <WELD_Service+0xf0>
    292a:	11 30       	cpi	r17, 0x01	; 1
    292c:	09 f0       	breq	.+2      	; 0x2930 <WELD_Service+0x68>
    292e:	bb c0       	rjmp	.+374    	; 0x2aa6 <WELD_Service+0x1de>
    2930:	80 91 49 03 	lds	r24, 0x0349
    2934:	81 11       	cpse	r24, r1
    2936:	21 c0       	rjmp	.+66     	; 0x297a <WELD_Service+0xb2>
    2938:	0e 94 3f 11 	call	0x227e	; 0x227e <UI_ForceUpdate>
    293c:	80 91 67 03 	lds	r24, 0x0367
    2940:	90 91 68 03 	lds	r25, 0x0368
    2944:	6a e0       	ldi	r22, 0x0A	; 10
    2946:	70 e0       	ldi	r23, 0x00	; 0
    2948:	0e 94 a6 16 	call	0x2d4c	; 0x2d4c <__udivmodhi4>
    294c:	80 91 4a 03 	lds	r24, 0x034A
    2950:	90 91 4b 03 	lds	r25, 0x034B
    2954:	a0 91 4c 03 	lds	r26, 0x034C
    2958:	b0 91 4d 03 	lds	r27, 0x034D
    295c:	86 0f       	add	r24, r22
    295e:	97 1f       	adc	r25, r23
    2960:	a1 1d       	adc	r26, r1
    2962:	b1 1d       	adc	r27, r1
    2964:	80 93 45 03 	sts	0x0345, r24
    2968:	90 93 46 03 	sts	0x0346, r25
    296c:	a0 93 47 03 	sts	0x0347, r26
    2970:	b0 93 48 03 	sts	0x0348, r27
    2974:	10 93 49 03 	sts	0x0349, r17
    2978:	4d c0       	rjmp	.+154    	; 0x2a14 <WELD_Service+0x14c>
    297a:	1a 9b       	sbis	0x03, 2	; 3
    297c:	54 c0       	rjmp	.+168    	; 0x2a26 <WELD_Service+0x15e>
    297e:	40 91 4a 03 	lds	r20, 0x034A
    2982:	50 91 4b 03 	lds	r21, 0x034B
    2986:	60 91 4c 03 	lds	r22, 0x034C
    298a:	70 91 4d 03 	lds	r23, 0x034D
    298e:	80 91 45 03 	lds	r24, 0x0345
    2992:	90 91 46 03 	lds	r25, 0x0346
    2996:	a0 91 47 03 	lds	r26, 0x0347
    299a:	b0 91 48 03 	lds	r27, 0x0348
    299e:	84 17       	cp	r24, r20
    29a0:	95 07       	cpc	r25, r21
    29a2:	a6 07       	cpc	r26, r22
    29a4:	b7 07       	cpc	r27, r23
    29a6:	08 f0       	brcs	.+2      	; 0x29aa <WELD_Service+0xe2>
    29a8:	82 c0       	rjmp	.+260    	; 0x2aae <WELD_Service+0x1e6>
    29aa:	5c 98       	cbi	0x0b, 4	; 11
    29ac:	82 e0       	ldi	r24, 0x02	; 2
    29ae:	80 93 0a 01 	sts	0x010A, r24
    29b2:	10 92 49 03 	sts	0x0349, r1
    29b6:	72 c0       	rjmp	.+228    	; 0x2a9c <WELD_Service+0x1d4>
    29b8:	80 91 49 03 	lds	r24, 0x0349
    29bc:	81 11       	cpse	r24, r1
    29be:	31 c0       	rjmp	.+98     	; 0x2a22 <WELD_Service+0x15a>
    29c0:	0e 94 3f 11 	call	0x227e	; 0x227e <UI_ForceUpdate>
    29c4:	80 91 6a 03 	lds	r24, 0x036A
    29c8:	00 91 4a 03 	lds	r16, 0x034A
    29cc:	10 91 4b 03 	lds	r17, 0x034B
    29d0:	20 91 4c 03 	lds	r18, 0x034C
    29d4:	30 91 4d 03 	lds	r19, 0x034D
    29d8:	81 11       	cpse	r24, r1
    29da:	05 c0       	rjmp	.+10     	; 0x29e6 <WELD_Service+0x11e>
    29dc:	0b 5f       	subi	r16, 0xFB	; 251
    29de:	1f 4f       	sbci	r17, 0xFF	; 255
    29e0:	2f 4f       	sbci	r18, 0xFF	; 255
    29e2:	3f 4f       	sbci	r19, 0xFF	; 255
    29e4:	0c c0       	rjmp	.+24     	; 0x29fe <WELD_Service+0x136>
    29e6:	80 91 67 03 	lds	r24, 0x0367
    29ea:	90 91 68 03 	lds	r25, 0x0368
    29ee:	6a e0       	ldi	r22, 0x0A	; 10
    29f0:	70 e0       	ldi	r23, 0x00	; 0
    29f2:	0e 94 a6 16 	call	0x2d4c	; 0x2d4c <__udivmodhi4>
    29f6:	06 0f       	add	r16, r22
    29f8:	17 1f       	adc	r17, r23
    29fa:	21 1d       	adc	r18, r1
    29fc:	31 1d       	adc	r19, r1
    29fe:	00 93 45 03 	sts	0x0345, r16
    2a02:	10 93 46 03 	sts	0x0346, r17
    2a06:	20 93 47 03 	sts	0x0347, r18
    2a0a:	30 93 48 03 	sts	0x0348, r19
    2a0e:	81 e0       	ldi	r24, 0x01	; 1
    2a10:	80 93 49 03 	sts	0x0349, r24
    2a14:	64 e6       	ldi	r22, 0x64	; 100
    2a16:	70 e0       	ldi	r23, 0x00	; 0
    2a18:	80 e0       	ldi	r24, 0x00	; 0
    2a1a:	90 e0       	ldi	r25, 0x00	; 0
    2a1c:	0e 94 d0 02 	call	0x5a0	; 0x5a0 <Beep>
    2a20:	46 c0       	rjmp	.+140    	; 0x2aae <WELD_Service+0x1e6>
    2a22:	4b 9b       	sbis	0x09, 3	; 9
    2a24:	0d c0       	rjmp	.+26     	; 0x2a40 <WELD_Service+0x178>
    2a26:	10 92 49 03 	sts	0x0349, r1
    2a2a:	10 92 0a 01 	sts	0x010A, r1
    2a2e:	64 e6       	ldi	r22, 0x64	; 100
    2a30:	70 e0       	ldi	r23, 0x00	; 0
    2a32:	80 e0       	ldi	r24, 0x00	; 0
    2a34:	90 e0       	ldi	r25, 0x00	; 0
    2a36:	0e 94 d0 02 	call	0x5a0	; 0x5a0 <Beep>
    2a3a:	0e 94 3f 11 	call	0x227e	; 0x227e <UI_ForceUpdate>
    2a3e:	37 c0       	rjmp	.+110    	; 0x2aae <WELD_Service+0x1e6>
    2a40:	40 91 4a 03 	lds	r20, 0x034A
    2a44:	50 91 4b 03 	lds	r21, 0x034B
    2a48:	60 91 4c 03 	lds	r22, 0x034C
    2a4c:	70 91 4d 03 	lds	r23, 0x034D
    2a50:	80 91 45 03 	lds	r24, 0x0345
    2a54:	90 91 46 03 	lds	r25, 0x0346
    2a58:	a0 91 47 03 	lds	r26, 0x0347
    2a5c:	b0 91 48 03 	lds	r27, 0x0348
    2a60:	84 17       	cp	r24, r20
    2a62:	95 07       	cpc	r25, r21
    2a64:	a6 07       	cpc	r26, r22
    2a66:	b7 07       	cpc	r27, r23
    2a68:	10 f5       	brcc	.+68     	; 0x2aae <WELD_Service+0x1e6>
    2a6a:	5c 98       	cbi	0x0b, 4	; 11
    2a6c:	82 e0       	ldi	r24, 0x02	; 2
    2a6e:	80 93 0a 01 	sts	0x010A, r24
    2a72:	10 92 49 03 	sts	0x0349, r1
    2a76:	80 91 4a 03 	lds	r24, 0x034A
    2a7a:	90 91 4b 03 	lds	r25, 0x034B
    2a7e:	a0 91 4c 03 	lds	r26, 0x034C
    2a82:	b0 91 4d 03 	lds	r27, 0x034D
    2a86:	c2 96       	adiw	r24, 0x32	; 50
    2a88:	a1 1d       	adc	r26, r1
    2a8a:	b1 1d       	adc	r27, r1
    2a8c:	80 93 45 03 	sts	0x0345, r24
    2a90:	90 93 46 03 	sts	0x0346, r25
    2a94:	a0 93 47 03 	sts	0x0347, r26
    2a98:	b0 93 48 03 	sts	0x0348, r27
    2a9c:	62 e3       	ldi	r22, 0x32	; 50
    2a9e:	70 e0       	ldi	r23, 0x00	; 0
    2aa0:	80 e0       	ldi	r24, 0x00	; 0
    2aa2:	90 e0       	ldi	r25, 0x00	; 0
    2aa4:	bb cf       	rjmp	.-138    	; 0x2a1c <WELD_Service+0x154>
    2aa6:	10 92 5d 03 	sts	0x035D, r1
    2aaa:	10 92 49 03 	sts	0x0349, r1
    2aae:	30 91 0a 01 	lds	r19, 0x010A
    2ab2:	32 30       	cpi	r19, 0x02	; 2
    2ab4:	09 f0       	breq	.+2      	; 0x2ab8 <WELD_Service+0x1f0>
    2ab6:	a6 c0       	rjmp	.+332    	; 0x2c04 <WELD_Service+0x33c>
    2ab8:	20 91 6a 03 	lds	r18, 0x036A
    2abc:	22 23       	and	r18, r18
    2abe:	21 f0       	breq	.+8      	; 0x2ac8 <WELD_Service+0x200>
    2ac0:	23 30       	cpi	r18, 0x03	; 3
    2ac2:	08 f0       	brcs	.+2      	; 0x2ac6 <WELD_Service+0x1fe>
    2ac4:	81 c0       	rjmp	.+258    	; 0x2bc8 <WELD_Service+0x300>
    2ac6:	52 c0       	rjmp	.+164    	; 0x2b6c <WELD_Service+0x2a4>
    2ac8:	4b 99       	sbic	0x09, 3	; 9
    2aca:	42 c0       	rjmp	.+132    	; 0x2b50 <WELD_Service+0x288>
    2acc:	80 91 5d 03 	lds	r24, 0x035D
    2ad0:	88 23       	and	r24, r24
    2ad2:	09 f4       	brne	.+2      	; 0x2ad6 <WELD_Service+0x20e>
    2ad4:	3f c0       	rjmp	.+126    	; 0x2b54 <WELD_Service+0x28c>
    2ad6:	40 91 4a 03 	lds	r20, 0x034A
    2ada:	50 91 4b 03 	lds	r21, 0x034B
    2ade:	60 91 4c 03 	lds	r22, 0x034C
    2ae2:	70 91 4d 03 	lds	r23, 0x034D
    2ae6:	80 91 45 03 	lds	r24, 0x0345
    2aea:	90 91 46 03 	lds	r25, 0x0346
    2aee:	a0 91 47 03 	lds	r26, 0x0347
    2af2:	b0 91 48 03 	lds	r27, 0x0348
    2af6:	84 17       	cp	r24, r20
    2af8:	95 07       	cpc	r25, r21
    2afa:	a6 07       	cpc	r26, r22
    2afc:	b7 07       	cpc	r27, r23
    2afe:	d8 f4       	brcc	.+54     	; 0x2b36 <WELD_Service+0x26e>
    2b00:	65 e0       	ldi	r22, 0x05	; 5
    2b02:	70 e0       	ldi	r23, 0x00	; 0
    2b04:	80 e0       	ldi	r24, 0x00	; 0
    2b06:	90 e0       	ldi	r25, 0x00	; 0
    2b08:	0e 94 d0 02 	call	0x5a0	; 0x5a0 <Beep>
    2b0c:	80 91 4a 03 	lds	r24, 0x034A
    2b10:	90 91 4b 03 	lds	r25, 0x034B
    2b14:	a0 91 4c 03 	lds	r26, 0x034C
    2b18:	b0 91 4d 03 	lds	r27, 0x034D
    2b1c:	c2 96       	adiw	r24, 0x32	; 50
    2b1e:	a1 1d       	adc	r26, r1
    2b20:	b1 1d       	adc	r27, r1
    2b22:	80 93 45 03 	sts	0x0345, r24
    2b26:	90 93 46 03 	sts	0x0346, r25
    2b2a:	a0 93 47 03 	sts	0x0347, r26
    2b2e:	b0 93 48 03 	sts	0x0348, r27
    2b32:	0e 94 5b 0f 	call	0x1eb6	; 0x1eb6 <UI_ResetActivity>
    2b36:	80 91 5b 03 	lds	r24, 0x035B
    2b3a:	84 30       	cpi	r24, 0x04	; 4
    2b3c:	91 f0       	breq	.+36     	; 0x2b62 <WELD_Service+0x29a>
    2b3e:	0e 94 ad 13 	call	0x275a	; 0x275a <WaitZeroX>
    2b42:	88 23       	and	r24, r24
    2b44:	71 f0       	breq	.+28     	; 0x2b62 <WELD_Service+0x29a>
    2b46:	5f 9a       	sbi	0x0b, 7	; 11
    2b48:	84 e0       	ldi	r24, 0x04	; 4
    2b4a:	80 93 5b 03 	sts	0x035B, r24
    2b4e:	09 c0       	rjmp	.+18     	; 0x2b62 <WELD_Service+0x29a>
    2b50:	0e 94 ad 13 	call	0x275a	; 0x275a <WaitZeroX>
    2b54:	5f 98       	cbi	0x0b, 7	; 11
    2b56:	85 e0       	ldi	r24, 0x05	; 5
    2b58:	80 93 5b 03 	sts	0x035B, r24
    2b5c:	83 e0       	ldi	r24, 0x03	; 3
    2b5e:	80 93 0a 01 	sts	0x010A, r24
    2b62:	80 91 5b 03 	lds	r24, 0x035B
    2b66:	0e 94 4d 04 	call	0x89a	; 0x89a <SetActiveWeldState>
    2b6a:	34 c0       	rjmp	.+104    	; 0x2bd4 <WELD_Service+0x30c>
    2b6c:	80 91 61 03 	lds	r24, 0x0361
    2b70:	90 91 62 03 	lds	r25, 0x0362
    2b74:	90 93 56 03 	sts	0x0356, r25
    2b78:	80 93 55 03 	sts	0x0355, r24
    2b7c:	80 91 63 03 	lds	r24, 0x0363
    2b80:	90 91 64 03 	lds	r25, 0x0364
    2b84:	90 93 58 03 	sts	0x0358, r25
    2b88:	80 93 57 03 	sts	0x0357, r24
    2b8c:	80 91 65 03 	lds	r24, 0x0365
    2b90:	90 91 66 03 	lds	r25, 0x0366
    2b94:	90 93 5a 03 	sts	0x035A, r25
    2b98:	80 93 59 03 	sts	0x0359, r24
    2b9c:	21 30       	cpi	r18, 0x01	; 1
    2b9e:	09 f0       	breq	.+2      	; 0x2ba2 <WELD_Service+0x2da>
    2ba0:	c9 c0       	rjmp	.+402    	; 0x2d34 <WELD_Service+0x46c>
    2ba2:	20 93 5c 03 	sts	0x035C, r18
    2ba6:	10 92 5b 03 	sts	0x035B, r1
    2baa:	80 91 5d 03 	lds	r24, 0x035D
    2bae:	88 23       	and	r24, r24
    2bb0:	39 f0       	breq	.+14     	; 0x2bc0 <WELD_Service+0x2f8>
    2bb2:	5c 98       	cbi	0x0b, 4	; 11
    2bb4:	85 e5       	ldi	r24, 0x55	; 85
    2bb6:	93 e0       	ldi	r25, 0x03	; 3
    2bb8:	0e 94 05 03 	call	0x60a	; 0x60a <StartWeldCycle>
    2bbc:	0e 94 5b 0f 	call	0x1eb6	; 0x1eb6 <UI_ResetActivity>
    2bc0:	83 e0       	ldi	r24, 0x03	; 3
    2bc2:	80 93 0a 01 	sts	0x010A, r24
    2bc6:	06 c0       	rjmp	.+12     	; 0x2bd4 <WELD_Service+0x30c>
    2bc8:	83 e0       	ldi	r24, 0x03	; 3
    2bca:	80 93 0a 01 	sts	0x010A, r24
    2bce:	85 e0       	ldi	r24, 0x05	; 5
    2bd0:	80 93 5b 03 	sts	0x035B, r24
    2bd4:	80 91 0a 01 	lds	r24, 0x010A
    2bd8:	83 30       	cpi	r24, 0x03	; 3
    2bda:	a1 f4       	brne	.+40     	; 0x2c04 <WELD_Service+0x33c>
    2bdc:	80 91 4a 03 	lds	r24, 0x034A
    2be0:	90 91 4b 03 	lds	r25, 0x034B
    2be4:	a0 91 4c 03 	lds	r26, 0x034C
    2be8:	b0 91 4d 03 	lds	r27, 0x034D
    2bec:	8c 59       	subi	r24, 0x9C	; 156
    2bee:	9f 4f       	sbci	r25, 0xFF	; 255
    2bf0:	af 4f       	sbci	r26, 0xFF	; 255
    2bf2:	bf 4f       	sbci	r27, 0xFF	; 255
    2bf4:	80 93 41 03 	sts	0x0341, r24
    2bf8:	90 93 42 03 	sts	0x0342, r25
    2bfc:	a0 93 43 03 	sts	0x0343, r26
    2c00:	b0 93 44 03 	sts	0x0344, r27
    2c04:	80 91 5b 03 	lds	r24, 0x035B
    2c08:	88 23       	and	r24, r24
    2c0a:	11 f0       	breq	.+4      	; 0x2c10 <WELD_Service+0x348>
    2c0c:	85 30       	cpi	r24, 0x05	; 5
    2c0e:	f9 f4       	brne	.+62     	; 0x2c4e <WELD_Service+0x386>
    2c10:	0e 94 6a 0f 	call	0x1ed4	; 0x1ed4 <UI_GetActivity>
    2c14:	81 11       	cpse	r24, r1
    2c16:	1b c0       	rjmp	.+54     	; 0x2c4e <WELD_Service+0x386>
    2c18:	85 e0       	ldi	r24, 0x05	; 5
    2c1a:	80 93 5b 03 	sts	0x035B, r24
    2c1e:	83 e0       	ldi	r24, 0x03	; 3
    2c20:	80 93 0a 01 	sts	0x010A, r24
    2c24:	80 91 4a 03 	lds	r24, 0x034A
    2c28:	90 91 4b 03 	lds	r25, 0x034B
    2c2c:	a0 91 4c 03 	lds	r26, 0x034C
    2c30:	b0 91 4d 03 	lds	r27, 0x034D
    2c34:	8c 59       	subi	r24, 0x9C	; 156
    2c36:	9f 4f       	sbci	r25, 0xFF	; 255
    2c38:	af 4f       	sbci	r26, 0xFF	; 255
    2c3a:	bf 4f       	sbci	r27, 0xFF	; 255
    2c3c:	80 93 41 03 	sts	0x0341, r24
    2c40:	90 93 42 03 	sts	0x0342, r25
    2c44:	a0 93 43 03 	sts	0x0343, r26
    2c48:	b0 93 44 03 	sts	0x0344, r27
    2c4c:	e9 9a       	sbi	0x1d, 1	; 29
    2c4e:	80 91 0a 01 	lds	r24, 0x010A
    2c52:	83 30       	cpi	r24, 0x03	; 3
    2c54:	09 f0       	breq	.+2      	; 0x2c58 <WELD_Service+0x390>
    2c56:	47 c0       	rjmp	.+142    	; 0x2ce6 <WELD_Service+0x41e>
    2c58:	0e 94 6b 04 	call	0x8d6	; 0x8d6 <GetActiveWeldState>
    2c5c:	85 30       	cpi	r24, 0x05	; 5
    2c5e:	09 f0       	breq	.+2      	; 0x2c62 <WELD_Service+0x39a>
    2c60:	42 c0       	rjmp	.+132    	; 0x2ce6 <WELD_Service+0x41e>
    2c62:	80 91 69 03 	lds	r24, 0x0369
    2c66:	81 30       	cpi	r24, 0x01	; 1
    2c68:	21 f4       	brne	.+8      	; 0x2c72 <WELD_Service+0x3aa>
    2c6a:	5c 9a       	sbi	0x0b, 4	; 11
    2c6c:	1a 99       	sbic	0x03, 2	; 3
    2c6e:	09 c0       	rjmp	.+18     	; 0x2c82 <WELD_Service+0x3ba>
    2c70:	05 c0       	rjmp	.+10     	; 0x2c7c <WELD_Service+0x3b4>
    2c72:	81 11       	cpse	r24, r1
    2c74:	08 c0       	rjmp	.+16     	; 0x2c86 <WELD_Service+0x3be>
    2c76:	4b 9b       	sbis	0x09, 3	; 9
    2c78:	04 c0       	rjmp	.+8      	; 0x2c82 <WELD_Service+0x3ba>
    2c7a:	81 e0       	ldi	r24, 0x01	; 1
    2c7c:	80 93 40 03 	sts	0x0340, r24
    2c80:	02 c0       	rjmp	.+4      	; 0x2c86 <WELD_Service+0x3be>
    2c82:	10 92 40 03 	sts	0x0340, r1
    2c86:	20 91 40 03 	lds	r18, 0x0340
    2c8a:	80 91 4a 03 	lds	r24, 0x034A
    2c8e:	90 91 4b 03 	lds	r25, 0x034B
    2c92:	a0 91 4c 03 	lds	r26, 0x034C
    2c96:	b0 91 4d 03 	lds	r27, 0x034D
    2c9a:	21 11       	cpse	r18, r1
    2c9c:	0e c0       	rjmp	.+28     	; 0x2cba <WELD_Service+0x3f2>
    2c9e:	ac 01       	movw	r20, r24
    2ca0:	bd 01       	movw	r22, r26
    2ca2:	4c 59       	subi	r20, 0x9C	; 156
    2ca4:	5f 4f       	sbci	r21, 0xFF	; 255
    2ca6:	6f 4f       	sbci	r22, 0xFF	; 255
    2ca8:	7f 4f       	sbci	r23, 0xFF	; 255
    2caa:	40 93 41 03 	sts	0x0341, r20
    2cae:	50 93 42 03 	sts	0x0342, r21
    2cb2:	60 93 43 03 	sts	0x0343, r22
    2cb6:	70 93 44 03 	sts	0x0344, r23
    2cba:	40 91 41 03 	lds	r20, 0x0341
    2cbe:	50 91 42 03 	lds	r21, 0x0342
    2cc2:	60 91 43 03 	lds	r22, 0x0343
    2cc6:	70 91 44 03 	lds	r23, 0x0344
    2cca:	48 17       	cp	r20, r24
    2ccc:	59 07       	cpc	r21, r25
    2cce:	6a 07       	cpc	r22, r26
    2cd0:	7b 07       	cpc	r23, r27
    2cd2:	48 f4       	brcc	.+18     	; 0x2ce6 <WELD_Service+0x41e>
    2cd4:	10 92 0a 01 	sts	0x010A, r1
    2cd8:	10 92 5b 03 	sts	0x035B, r1
    2cdc:	80 e0       	ldi	r24, 0x00	; 0
    2cde:	0e 94 4d 04 	call	0x89a	; 0x89a <SetActiveWeldState>
    2ce2:	0e 94 3f 11 	call	0x227e	; 0x227e <UI_ForceUpdate>
    2ce6:	80 91 54 03 	lds	r24, 0x0354
    2cea:	88 23       	and	r24, r24
    2cec:	31 f1       	breq	.+76     	; 0x2d3a <WELD_Service+0x472>
    2cee:	0e 94 e3 13 	call	0x27c6	; 0x27c6 <DisableWeld>
    2cf2:	64 e6       	ldi	r22, 0x64	; 100
    2cf4:	70 e0       	ldi	r23, 0x00	; 0
    2cf6:	80 e0       	ldi	r24, 0x00	; 0
    2cf8:	90 e0       	ldi	r25, 0x00	; 0
    2cfa:	0e 94 d0 02 	call	0x5a0	; 0x5a0 <Beep>
    2cfe:	0e 94 f0 05 	call	0xbe0	; 0xbe0 <vfdClr>
    2d02:	02 e0       	ldi	r16, 0x02	; 2
    2d04:	20 e0       	ldi	r18, 0x00	; 0
    2d06:	40 e0       	ldi	r20, 0x00	; 0
    2d08:	60 e1       	ldi	r22, 0x10	; 16
    2d0a:	83 e4       	ldi	r24, 0x43	; 67
    2d0c:	94 e0       	ldi	r25, 0x04	; 4
    2d0e:	0e 94 05 05 	call	0xa0a	; 0xa0a <vfdPrintStrXY>
    2d12:	21 e0       	ldi	r18, 0x01	; 1
    2d14:	40 e0       	ldi	r20, 0x00	; 0
    2d16:	60 e1       	ldi	r22, 0x10	; 16
    2d18:	82 e3       	ldi	r24, 0x32	; 50
    2d1a:	94 e0       	ldi	r25, 0x04	; 4
    2d1c:	0e 94 05 05 	call	0xa0a	; 0xa0a <vfdPrintStrXY>
    2d20:	80 91 54 03 	lds	r24, 0x0354
    2d24:	81 11       	cpse	r24, r1
    2d26:	fc cf       	rjmp	.-8      	; 0x2d20 <WELD_Service+0x458>
    2d28:	0e 94 5b 0f 	call	0x1eb6	; 0x1eb6 <UI_ResetActivity>
    2d2c:	1f 91       	pop	r17
    2d2e:	0f 91       	pop	r16
    2d30:	0c 94 f2 13 	jmp	0x27e4	; 0x27e4 <EnableWeld>
    2d34:	30 93 5c 03 	sts	0x035C, r19
    2d38:	36 cf       	rjmp	.-404    	; 0x2ba6 <WELD_Service+0x2de>
    2d3a:	1f 91       	pop	r17
    2d3c:	0f 91       	pop	r16
    2d3e:	08 95       	ret

00002d40 <IsWeldTriggered>:
    2d40:	80 91 0a 01 	lds	r24, 0x010A
    2d44:	08 95       	ret

00002d46 <IsWeldEnabled>:
    2d46:	80 91 5d 03 	lds	r24, 0x035D
    2d4a:	08 95       	ret

00002d4c <__udivmodhi4>:
    2d4c:	aa 1b       	sub	r26, r26
    2d4e:	bb 1b       	sub	r27, r27
    2d50:	51 e1       	ldi	r21, 0x11	; 17
    2d52:	07 c0       	rjmp	.+14     	; 0x2d62 <__udivmodhi4_ep>

00002d54 <__udivmodhi4_loop>:
    2d54:	aa 1f       	adc	r26, r26
    2d56:	bb 1f       	adc	r27, r27
    2d58:	a6 17       	cp	r26, r22
    2d5a:	b7 07       	cpc	r27, r23
    2d5c:	10 f0       	brcs	.+4      	; 0x2d62 <__udivmodhi4_ep>
    2d5e:	a6 1b       	sub	r26, r22
    2d60:	b7 0b       	sbc	r27, r23

00002d62 <__udivmodhi4_ep>:
    2d62:	88 1f       	adc	r24, r24
    2d64:	99 1f       	adc	r25, r25
    2d66:	5a 95       	dec	r21
    2d68:	a9 f7       	brne	.-22     	; 0x2d54 <__udivmodhi4_loop>
    2d6a:	80 95       	com	r24
    2d6c:	90 95       	com	r25
    2d6e:	bc 01       	movw	r22, r24
    2d70:	cd 01       	movw	r24, r26
    2d72:	08 95       	ret

00002d74 <__udivmodsi4>:
    2d74:	a1 e2       	ldi	r26, 0x21	; 33
    2d76:	1a 2e       	mov	r1, r26
    2d78:	aa 1b       	sub	r26, r26
    2d7a:	bb 1b       	sub	r27, r27
    2d7c:	fd 01       	movw	r30, r26
    2d7e:	0d c0       	rjmp	.+26     	; 0x2d9a <__udivmodsi4_ep>

00002d80 <__udivmodsi4_loop>:
    2d80:	aa 1f       	adc	r26, r26
    2d82:	bb 1f       	adc	r27, r27
    2d84:	ee 1f       	adc	r30, r30
    2d86:	ff 1f       	adc	r31, r31
    2d88:	a2 17       	cp	r26, r18
    2d8a:	b3 07       	cpc	r27, r19
    2d8c:	e4 07       	cpc	r30, r20
    2d8e:	f5 07       	cpc	r31, r21
    2d90:	20 f0       	brcs	.+8      	; 0x2d9a <__udivmodsi4_ep>
    2d92:	a2 1b       	sub	r26, r18
    2d94:	b3 0b       	sbc	r27, r19
    2d96:	e4 0b       	sbc	r30, r20
    2d98:	f5 0b       	sbc	r31, r21

00002d9a <__udivmodsi4_ep>:
    2d9a:	66 1f       	adc	r22, r22
    2d9c:	77 1f       	adc	r23, r23
    2d9e:	88 1f       	adc	r24, r24
    2da0:	99 1f       	adc	r25, r25
    2da2:	1a 94       	dec	r1
    2da4:	69 f7       	brne	.-38     	; 0x2d80 <__udivmodsi4_loop>
    2da6:	60 95       	com	r22
    2da8:	70 95       	com	r23
    2daa:	80 95       	com	r24
    2dac:	90 95       	com	r25
    2dae:	9b 01       	movw	r18, r22
    2db0:	ac 01       	movw	r20, r24
    2db2:	bd 01       	movw	r22, r26
    2db4:	cf 01       	movw	r24, r30
    2db6:	08 95       	ret

00002db8 <memset>:
    2db8:	dc 01       	movw	r26, r24
    2dba:	01 c0       	rjmp	.+2      	; 0x2dbe <memset+0x6>
    2dbc:	6d 93       	st	X+, r22
    2dbe:	41 50       	subi	r20, 0x01	; 1
    2dc0:	50 40       	sbci	r21, 0x00	; 0
    2dc2:	e0 f7       	brcc	.-8      	; 0x2dbc <memset+0x4>
    2dc4:	08 95       	ret

00002dc6 <__utoa_ncheck>:
    2dc6:	bb 27       	eor	r27, r27

00002dc8 <__utoa_common>:
    2dc8:	fb 01       	movw	r30, r22
    2dca:	55 27       	eor	r21, r21
    2dcc:	aa 27       	eor	r26, r26
    2dce:	88 0f       	add	r24, r24
    2dd0:	99 1f       	adc	r25, r25
    2dd2:	aa 1f       	adc	r26, r26
    2dd4:	a4 17       	cp	r26, r20
    2dd6:	10 f0       	brcs	.+4      	; 0x2ddc <__utoa_common+0x14>
    2dd8:	a4 1b       	sub	r26, r20
    2dda:	83 95       	inc	r24
    2ddc:	50 51       	subi	r21, 0x10	; 16
    2dde:	b9 f7       	brne	.-18     	; 0x2dce <__utoa_common+0x6>
    2de0:	a0 5d       	subi	r26, 0xD0	; 208
    2de2:	aa 33       	cpi	r26, 0x3A	; 58
    2de4:	08 f0       	brcs	.+2      	; 0x2de8 <__utoa_common+0x20>
    2de6:	a9 5d       	subi	r26, 0xD9	; 217
    2de8:	a1 93       	st	Z+, r26
    2dea:	00 97       	sbiw	r24, 0x00	; 0
    2dec:	79 f7       	brne	.-34     	; 0x2dcc <__utoa_common+0x4>
    2dee:	b1 11       	cpse	r27, r1
    2df0:	b1 93       	st	Z+, r27
    2df2:	11 92       	st	Z+, r1
    2df4:	cb 01       	movw	r24, r22
    2df6:	0c 94 23 17 	jmp	0x2e46	; 0x2e46 <strrev>

00002dfa <__eerd_byte_m644>:
    2dfa:	f9 99       	sbic	0x1f, 1	; 31
    2dfc:	fe cf       	rjmp	.-4      	; 0x2dfa <__eerd_byte_m644>
    2dfe:	92 bd       	out	0x22, r25	; 34
    2e00:	81 bd       	out	0x21, r24	; 33
    2e02:	f8 9a       	sbi	0x1f, 0	; 31
    2e04:	99 27       	eor	r25, r25
    2e06:	80 b5       	in	r24, 0x20	; 32
    2e08:	08 95       	ret

00002e0a <__eerd_word_m644>:
    2e0a:	a8 e1       	ldi	r26, 0x18	; 24
    2e0c:	b0 e0       	ldi	r27, 0x00	; 0
    2e0e:	42 e0       	ldi	r20, 0x02	; 2
    2e10:	50 e0       	ldi	r21, 0x00	; 0
    2e12:	0c 94 35 17 	jmp	0x2e6a	; 0x2e6a <__eerd_blraw_m644>

00002e16 <__eeupd_byte_m644>:
    2e16:	26 2f       	mov	r18, r22

00002e18 <__eeupd_r18_m644>:
    2e18:	f9 99       	sbic	0x1f, 1	; 31
    2e1a:	fe cf       	rjmp	.-4      	; 0x2e18 <__eeupd_r18_m644>
    2e1c:	92 bd       	out	0x22, r25	; 34
    2e1e:	81 bd       	out	0x21, r24	; 33
    2e20:	f8 9a       	sbi	0x1f, 0	; 31
    2e22:	01 97       	sbiw	r24, 0x01	; 1
    2e24:	00 b4       	in	r0, 0x20	; 32
    2e26:	02 16       	cp	r0, r18
    2e28:	39 f0       	breq	.+14     	; 0x2e38 <__eeupd_r18_m644+0x20>
    2e2a:	1f ba       	out	0x1f, r1	; 31
    2e2c:	20 bd       	out	0x20, r18	; 32
    2e2e:	0f b6       	in	r0, 0x3f	; 63
    2e30:	f8 94       	cli
    2e32:	fa 9a       	sbi	0x1f, 2	; 31
    2e34:	f9 9a       	sbi	0x1f, 1	; 31
    2e36:	0f be       	out	0x3f, r0	; 63
    2e38:	08 95       	ret

00002e3a <__eeupd_word_m644>:
    2e3a:	01 96       	adiw	r24, 0x01	; 1
    2e3c:	27 2f       	mov	r18, r23
    2e3e:	0e 94 0c 17 	call	0x2e18	; 0x2e18 <__eeupd_r18_m644>
    2e42:	0c 94 0b 17 	jmp	0x2e16	; 0x2e16 <__eeupd_byte_m644>

00002e46 <strrev>:
    2e46:	dc 01       	movw	r26, r24
    2e48:	fc 01       	movw	r30, r24
    2e4a:	67 2f       	mov	r22, r23
    2e4c:	71 91       	ld	r23, Z+
    2e4e:	77 23       	and	r23, r23
    2e50:	e1 f7       	brne	.-8      	; 0x2e4a <strrev+0x4>
    2e52:	32 97       	sbiw	r30, 0x02	; 2
    2e54:	04 c0       	rjmp	.+8      	; 0x2e5e <strrev+0x18>
    2e56:	7c 91       	ld	r23, X
    2e58:	6d 93       	st	X+, r22
    2e5a:	70 83       	st	Z, r23
    2e5c:	62 91       	ld	r22, -Z
    2e5e:	ae 17       	cp	r26, r30
    2e60:	bf 07       	cpc	r27, r31
    2e62:	c8 f3       	brcs	.-14     	; 0x2e56 <strrev+0x10>
    2e64:	08 95       	ret

00002e66 <__eerd_block_m644>:
    2e66:	dc 01       	movw	r26, r24
    2e68:	cb 01       	movw	r24, r22

00002e6a <__eerd_blraw_m644>:
    2e6a:	fc 01       	movw	r30, r24
    2e6c:	f9 99       	sbic	0x1f, 1	; 31
    2e6e:	fe cf       	rjmp	.-4      	; 0x2e6c <__eerd_blraw_m644+0x2>
    2e70:	06 c0       	rjmp	.+12     	; 0x2e7e <__eerd_blraw_m644+0x14>
    2e72:	f2 bd       	out	0x22, r31	; 34
    2e74:	e1 bd       	out	0x21, r30	; 33
    2e76:	f8 9a       	sbi	0x1f, 0	; 31
    2e78:	31 96       	adiw	r30, 0x01	; 1
    2e7a:	00 b4       	in	r0, 0x20	; 32
    2e7c:	0d 92       	st	X+, r0
    2e7e:	41 50       	subi	r20, 0x01	; 1
    2e80:	50 40       	sbci	r21, 0x00	; 0
    2e82:	b8 f7       	brcc	.-18     	; 0x2e72 <__eerd_blraw_m644+0x8>
    2e84:	08 95       	ret

00002e86 <_exit>:
    2e86:	f8 94       	cli

00002e88 <__stop_program>:
    2e88:	ff cf       	rjmp	.-2      	; 0x2e88 <__stop_program>
